(dp0
S'ISDR'
p1
F1.0
sS'PKY'
p2
F1.0
sS'HDIUF'
p3
F0.0
sS'ITCTY'
p4
F1.0
sS'RAFLF'
p5
F0.0
sS'TCKGF'
p6
F1.0
sS'HSYFB'
p7
F1.0
sS'NYT'
p8
F0.985
sS'SGMO'
p9
F0.0
sS'AGX'
p10
F0.0
sS'PRIM'
p11
F0.104
sS'AGU'
p12
F1.0
sS'FREVS'
p13
F1.0
sS'EXGYF'
p14
F1.0
sS'BWP'
p15
F1.0
sS'IPGDF'
p16
F0.972
sS'BWS'
p17
F0.07
sS'KESAY'
p18
F1.0
sS'KOSS'
p19
F0.0
sS'SPR'
p20
F0.0
sS'VRTC'
p21
F1.0
sS'SCLN'
p22
F0.0
sS'SGMS'
p23
F0.007
sS'OISHY'
p24
F1.0
sS'KRG'
p25
F1.0
sS'PTNR'
p26
F0.0
sS'BWA'
p27
F0.63
sS'CRBO'
p28
F1.0
sS'BWC'
p29
F0.0
sS'CWLPF'
p30
F0.0
sS'SPN'
p31
F0.0
sS'KESAF'
p32
F1.0
sS'SPA'
p33
F0.0
sS'SPB'
p34
F0.028
sS'VRTS'
p35
F1.0
sS'VRTU'
p36
F0.0
sS'SPF'
p37
F1.0
sS'EMYIF'
p38
F0.986
sS'ENDP'
p39
F0.0
sS'INSV'
p40
F1.0
sS'GT'
p41
F1.0
sS'MTLRF'
p42
F1.0
sS'CTLR'
p43
F1.0
sS'CBLI'
p44
F1.0
sS'APEMY'
p45
F0.016
sS'MLNK'
p46
F0.0
sS'GY'
p47
F0.0
sS'GG'
p48
F0.0
sS'GE'
p49
F0.138
sS'GD'
p50
F0.0
sS'GB'
p51
F0.0
sS'SKWIF'
p52
F0.001
sS'NUE'
p53
F0.0
sS'BYD'
p54
F1.0
sS'JAMN'
p55
F0.0
sS'JNS'
p56
F0.0
sS'FMCQF'
p57
F0.153
sS'MAR'
p58
F0.544
sS'ANRRF'
p59
F1.0
sS'MAT'
p60
F0.0
sS'AMCX'
p61
F0.801
sS'FPLPF'
p62
F0.0
sS'CVNZF'
p63
F1.0
sS'BIREF'
p64
F1.0
sS'PRPH'
p65
F0.0
sS'SNI'
p66
F0.004
sS'ROYL'
p67
F1.0
sS'REMI'
p68
F0.0
sS'ACLS'
p69
F0.0
sS'PULS'
p70
F0.108
sS'FPLPY'
p71
F0.0
sS'TEL'
p72
F0.0
sS'JNJ'
p73
F0.004
sS'ACLZ'
p74
F1.0
sS'AMCC'
p75
F1.0
sS'SNX'
p76
F0.0
sS'MAN'
p77
F0.0
sS'EVI'
p78
F0.0
sS'JBSS'
p79
F0.001
sS'EVK'
p80
F0.382
sS'BEN'
p81
F0.0
sS'AQBKF'
p82
F0.0
sS'ZLDPF'
p83
F0.0
sS'TDG'
p84
F0.722
sS'HPCRF'
p85
F1.0
sS'ERII'
p86
F0.0
sS'ENB'
p87
F1.0
sS'BEE'
p88
F0.001
sS'TPLM'
p89
F1.0
sS'BCYP'
p90
F0.0
sS'CRTSF'
p91
F0.844
sS'ICUI'
p92
F0.0
sS'TETHF'
p93
F1.0
sS'GAIA'
p94
F0.999
sS'MGMXF'
p95
F0.0
sS'LSG'
p96
F1.0
sS'G'
p97
F0.0
sS'MNDJF'
p98
F1.0
sS'PRNAF'
p99
F1.0
sS'SGPRF'
p100
F1.0
sS'TLSNF'
p101
F0.274
sS'TDY'
p102
F0.0
sS'KWIPF'
p103
F1.0
sS'ICAGY'
p104
F1.0
sS'SPXSY'
p105
F0.435
sS'TTM'
p106
F1.0
sS'TTC'
p107
F0.198
sS'MRTPY'
p108
F1.0
sS'ACKAY'
p109
F0.002
sS'DSRLF'
p110
F0.0
sS'ODVCI'
p111
F1.0
sS'GNLAF'
p112
F0.0
sS'UUGWF'
p113
F1.0
sS'BOUYY'
p114
F0.999
sS'PFIN'
p115
F0.0
sS'PEXNY'
p116
F0.002
sS'PTAUY'
p117
F1.0
sS'MOHDY'
p118
F1.0
sS'TLTZY'
p119
F1.0
sS'CEVA'
p120
F0.0
sS'TCHBF'
p121
F0.0
sS'BBOX'
p122
F0.0
sS'PEP'
p123
F0.816
sS'DHIFF'
p124
F0.03
sS'GRO'
p125
F0.079
sS'BOUYF'
p126
F0.999
sS'CPRT'
p127
F0.001
sS'SYNL'
p128
F0.0
sS'GNDIF'
p129
F0.016
sS'WPCS'
p130
F0.0
sS'DYAX'
p131
F0.0
sS'FPRUY'
p132
F1.0
sS'AVHI'
p133
F1.0
sS'NOG'
p134
F1.0
sS'HLS'
p135
F1.0
sS'NOA'
p136
F0.0
sS'NOC'
p137
F0.008
sS'NPXIY'
p138
F0.005
sS'SPP'
p139
F0.0
sS'ENS'
p140
F0.0
sS'FSOYF'
p141
F0.01
sS'MSIXF'
p142
F0.304
sS'QLGC'
p143
F0.0
sS'FPRUF'
p144
F1.0
sS'HLF'
p145
F1.0
sS'NOV'
p146
F0.0
sS'SIF'
p147
F0.0
sS'APDN'
p148
F1.0
sS'HPP'
p149
F1.0
sS'JACK'
p150
F1.0
sS'SMDM'
p151
F0.966
sS'ATGFF'
p152
F1.0
sS'SYPR'
p153
F0.0
sS'CTS'
p154
F0.0
sS'SLAB'
p155
F0.0
sS'GNTLF'
p156
F1.0
sS'PHXHF'
p157
F1.0
sS'SPPI'
p158
F0.002
sS'EVSRF'
p159
F1.0
sS'NUVA'
p160
F0.0
sS'PWE'
p161
F0.0
sS'CWEI'
p162
F1.0
sS'SGPRY'
p163
F1.0
sS'SWSH'
p164
F0.0
sS'RAVN'
p165
F0.0
sS'RIG'
p166
F0.0
sS'CTB'
p167
F0.0
sS'SPPR'
p168
F1.0
sS'CTL'
p169
F0.88
sS'PHMD'
p170
F1.0
sS'EGKLF'
p171
F0.999
sS'SPH'
p172
F0.0
sS'BRRAF'
p173
F1.0
sS'MIGGF'
p174
F0.0
sS'VSEC'
p175
F0.0
sS'ARTW'
p176
F0.0
sS'IEHC'
p177
F0.0
sS'WIHLY'
p178
F0.0
sS'ARTX'
p179
F0.0
sS'BAESF'
p180
F1.0
sS'TRKNY'
p181
F0.0
sS'TTVSF'
p182
F0.009
sS'TATLY'
p183
F1.0
sS'BAESY'
p184
F1.0
sS'WHR'
p185
F0.04
sS'WSH'
p186
F1.0
sS'PSSR'
p187
F0.0
sS'RHHBF'
p188
F0.001
sS'TASR'
p189
F0.0
sS'TAST'
p190
F1.0
sS'BRRAY'
p191
F1.0
sS'EEYUF'
p192
F0.0
sS'GOFPY'
p193
F0.0
sS'ATEA'
p194
F0.0
sS'ATEC'
p195
F1.0
sS'SCMP'
p196
F0.0
sS'FKRNF'
p197
F1.0
sS'DOVR'
p198
F1.0
sS'TDCH'
p199
F1.0
sS'MFON'
p200
F0.0
sS'CLEZF'
p201
F1.0
sS'HENOY'
p202
F0.628
sS'VREYF'
p203
F1.0
sS'ISVJF'
p204
F0.033
sS'SWN'
p205
F1.0
sS'GLTC'
p206
F1.0
sS'LONG'
p207
F0.0
sS'PDTRF'
p208
F1.0
sS'TOLWF'
p209
F0.0
sS'WMT'
p210
F1.0
sS'MRVNY'
p211
F0.0
sS'NTAP'
p212
F0.0
sS'AVEPY'
p213
F0.008
sS'EDE'
p214
F1.0
sS'RLD'
p215
F0.0
sS'ZTCOF'
p216
F0.055
sS'AGPDY'
p217
F0.053
sS'SSGPY'
p218
F0.868
sS'TGRAF'
p219
F0.998
sS'EDR'
p220
F1.0
sS'SMNPF'
p221
F0.0
sS'PDII'
p222
F1.0
sS'AGPDF'
p223
F0.054
sS'MXCYY'
p224
F0.002
sS'TETZF'
p225
F1.0
sS'EDU'
p226
F1.0
sS'WFLWY'
p227
F1.0
sS'TLP'
p228
F0.0
sS'SHO'
p229
F1.0
sS'RDLCF'
p230
F0.002
sS'EVEP'
p231
F0.0
sS'ORA'
p232
F0.999
sS'DPW'
p233
F0.0
sS'PEGRY'
p234
F1.0
sS'PSEC'
p235
F1.0
sS'DPS'
p236
F0.963
sS'CSSV'
p237
F0.0
sS'GV'
p238
F0.0
sS'FARM'
p239
F0.0
sS'FARO'
p240
F0.066
sS'ADUS'
p241
F0.0
sS'DPZ'
p242
F1.0
sS'NTOIF'
p243
F0.004
sS'VVIT'
p244
F1.0
sS'IKAN'
p245
F1.0
sS'COHR'
p246
F0.0
sS'FSYS'
p247
F0.0
sS'ABAX'
p248
F0.0
sS'AKVA'
p249
F1.0
sS'AKAAF'
p250
F1.0
sS'COHU'
p251
F0.0
sS'LG'
p252
F1.0
sS'GUID'
p253
F0.444
sS'ROX'
p254
F0.986
sS'AGCO'
p255
F0.12
sS'ICE'
p256
F0.135
sS'GBERY'
p257
F0.0
sS'GVDBF'
p258
F0.0
sS'LH'
p259
F0.037
sS'ONE'
p260
F0.998
sS'PTSI'
p261
F0.057
sS'CMC'
p262
F0.0
sS'UEIC'
p263
F0.0
sS'GBERF'
p264
F0.0
sS'TAWNF'
p265
F0.554
sS'KNCRY'
p266
F0.742
sS'ONP'
p267
F1.0
sS'IIN'
p268
F0.004
sS'III'
p269
F0.078
sS'MJN'
p270
F0.957
sS'A'
p271
F0.0
sS'TEG'
p272
F1.0
sS'MLR'
p273
F0.0
sS'FORM'
p274
F0.0
sS'NTWK'
p275
F0.0
sS'KEYW'
p276
F0.0
sS'RELLB'
p277
F0.0
sS'RYCEF'
p278
F0.985
sS'FORD'
p279
F0.0
sS'NOR'
p280
F0.967
sS'WEX'
p281
F0.021
sS'EXCC'
p282
F0.0
sS'FORR'
p283
F0.01
sS'TEFOF'
p284
F1.0
sS'TAVHY'
p285
F0.0
sS'CNTY'
p286
F1.0
sS'TEX'
p287
F0.0
sS'CALX'
p288
F0.0
sS'DEITF'
p289
F1.0
sS'ALKEF'
p290
F1.0
sS'CFI'
p291
F0.0
sS'CIEN'
p292
F0.007
sS'RS'
p293
F0.0
sS'DUERF'
p294
F0.0
sS'PNW'
p295
F1.0
sS'PNK'
p296
F1.0
sS'PNM'
p297
F1.0
sS'CALM'
p298
F0.0
sS'CFX'
p299
F0.001
sS'VLKAY'
p300
F1.0
sS'RUTH'
p301
F1.0
sS'CALD'
p302
F0.007
sS'DTEGF'
p303
F1.0
sS'FIZZ'
p304
F0.0
sS'WLWHF'
p305
F1.0
sS'PEUGF'
p306
F0.98
sS'UTEK'
p307
F0.0
sS'KREVF'
p308
F1.0
sS'RGLD'
p309
F0.0
sS'ORBK'
p310
F0.0
sS'CBOE'
p311
F0.001
sS'PPXXY'
p312
F0.0
sS'MYMNF'
p313
F0.0
sS'OCANF'
p314
F0.0
sS'GIII'
p315
F0.0
sS'NIDOF'
p316
F0.0
sS'TRUE'
p317
F0.0
sS'COVR'
p318
F0.0
sS'ASTI'
p319
F1.0
sS'HLBZF'
p320
F1.0
sS'NURO'
p321
F1.0
sS'SAM'
p322
F1.0
sS'BIRDF'
p323
F0.0
sS'JOY'
p324
F0.0
sS'PRO'
p325
F1.0
sS'ASTC'
p326
F0.0
sS'ASTE'
p327
F0.0
sS'BFLBY'
p328
F0.003
sS'WWE'
p329
F0.0
sS'BFLBF'
p330
F0.003
sS'JOB'
p331
F0.002
sS'VEIFF'
p332
F1.0
sS'ISR'
p333
F0.0
sS'HGHAF'
p334
F1.0
sS'CFWFF'
p335
F0.0
sS'ASTV'
p336
F1.0
sS'GMVHF'
p337
F1.0
sS'UTIW'
p338
F0.949
sS'CHD'
p339
F0.071
sS'CHE'
p340
F0.954
sS'CHH'
p341
F0.007
sS'CHK'
p342
F1.0
sS'CVSL'
p343
F1.0
sS'VLGEA'
p344
F1.0
sS'CHS'
p345
F1.0
sS'DAKT'
p346
F0.0
sS'AXSAF'
p347
F0.001
sS'DGSE'
p348
F1.0
sS'FRIVF'
p349
F0.0
sS'FELE'
p350
F0.328
sS'TPRFF'
p351
F1.0
sS'NNBR'
p352
F0.078
sS'AMRN'
p353
F1.0
sS'SNAK'
p354
F0.956
sS'AMRI'
p355
F0.0
sS'HEKRF'
p356
F0.0
sS'PESI'
p357
F0.418
sS'DCVRF'
p358
F0.078
sS'AXAS'
p359
F1.0
sS'DBD'
p360
F0.001
sS'APT'
p361
F0.0
sS'AMRC'
p362
F0.97
sS'TWIRF'
p363
F0.511
sS'MENT'
p364
F0.947
sS'APH'
p365
F0.0
sS'API'
p366
F0.001
sS'RKIGF'
p367
F1.0
sS'APO'
p368
F0.0
sS'APC'
p369
F1.0
sS'ORBC'
p370
F1.0
sS'APA'
p371
F1.0
sS'MTRX'
p372
F0.0
sS'APD'
p373
F0.956
sS'AMRS'
p374
F1.0
sS'WTSHF'
p375
F0.028
sS'NKRSF'
p376
F1.0
sS'DXPE'
p377
F0.0
sS'CQUTF'
p378
F0.0
sS'GST'
p379
F1.0
sS'ILKAF'
p380
F0.0
sS'WSCI'
p381
F0.0
sS'CLHSF'
p382
F0.0
sS'SKLTY'
p383
F0.994
sS'QLIK'
p384
F0.028
sS'TNMRY'
p385
F0.413
sS'SVGYF'
p386
F0.0
sS'NRDXF'
p387
F0.0
sS'EWCLF'
p388
F1.0
sS'AEXAF'
p389
F0.016
sS'ITRI'
p390
F0.0
sS'IDHUY'
p391
F0.989
sS'AVGO'
p392
F0.0
sS'HMY'
p393
F0.002
sS'SWGNF'
p394
F0.0
sS'ELUXF'
p395
F0.001
sS'VG'
p396
F1.0
sS'WFTSF'
p397
F0.0
sS'BOPH'
p398
F0.918
sS'SLW'
p399
F0.0
sS'WMAR'
p400
F1.0
sS'UCTT'
p401
F0.0
sS'CNMD'
p402
F0.0
sS'SGPEF'
p403
F0.0
sS'LTTC'
p404
F1.0
sS'ELUXY'
p405
F0.003
sS'HME'
p406
F1.0
sS'HSKA'
p407
F0.0
sS'HPQ'
p408
F0.0
sS'HMC'
p409
F1.0
sS'GCA'
p410
F0.999
sS'DLB'
p411
F0.0
sS'DLA'
p412
F0.0
sS'CSOD'
p413
F0.0
sS'SENCF'
p414
F1.0
sS'MAG'
p415
F0.0
sS'ARMVF'
p416
F0.0
sS'GCI'
p417
F0.86
sS'XNNH'
p418
F1.0
sS'BOBE'
p419
F1.0
sS'PYNGF'
p420
F0.002
sS'CRESF'
p421
F0.436
sS'CLZNY'
p422
F0.994
sS'CLZNF'
p423
F0.994
sS'CRESY'
p424
F0.571
sS'ENOC'
p425
F0.0
sS'HWAY'
p426
F0.011
sS'BNKJF'
p427
F1.0
sS'DLX'
p428
F1.0
sS'PAYD'
p429
F0.0
sS'MCRNF'
p430
F0.0
sS'BTU'
p431
F0.883
sS'CAHPF'
p432
F1.0
sS'MSLP'
p433
F0.004
sS'BZLFF'
p434
F0.0
sS'SSW'
p435
F1.0
sS'SEP'
p436
F1.0
sS'SAAS'
p437
F1.0
sS'BTX'
p438
F1.0
sS'MEDL'
p439
F1.0
sS'CBAK'
p440
F1.0
sS'SSL'
p441
F1.0
sS'SSN'
p442
F1.0
sS'XRX'
p443
F0.0
sS'BZLFY'
p444
F0.0
sS'SSD'
p445
F0.0
sS'BTN'
p446
F0.0
sS'BTI'
p447
F0.999
sS'CREE'
p448
F0.0
sS'PTOS'
p449
F1.0
sS'CREG'
p450
F1.0
sS'TSN'
p451
F0.005
sS'DYNT'
p452
F0.002
sS'NXOI'
p453
F1.0
sS'CHRVF'
p454
F1.0
sS'SILLF'
p455
F0.0
sS'RSGUF'
p456
F0.015
sS'PHNHF'
p457
F1.0
sS'AAYYY'
p458
F0.0
sS'ZPTAF'
p459
F1.0
sS'WHITF'
p460
F1.0
sS'STRP'
p461
F0.0
sS'COLDF'
p462
F0.978
sS'YARIY'
p463
F0.886
sS'EIHLY'
p464
F0.99
sS'PGTI'
p465
F0.0
sS'STAG'
p466
F1.0
sS'PVA'
p467
F1.0
sS'SNDK'
p468
F0.0
sS'EWCLY'
p469
F1.0
sS'LANC'
p470
F0.0
sS'ECA'
p471
F1.0
sS'EXPR'
p472
F1.0
sS'ECL'
p473
F0.986
sS'IPHS'
p474
F0.0
sS'IMMU'
p475
F1.0
sS'ALQA'
p476
F0.0
sS'KHOLF'
p477
F0.123
sS'EXPO'
p478
F0.0
sS'IPHI'
p479
F0.0
sS'SMBMF'
p480
F1.0
sS'BAYZF'
p481
F0.359
sS'AREX'
p482
F1.0
sS'EXPD'
p483
F0.0
sS'PLUS'
p484
F0.093
sS'B'
p485
F0.0
sS'CRWS'
p486
F0.0
sS'BBG'
p487
F1.0
sS'CKKIF'
p488
F1.0
sS'NKSJY'
p489
F0.999
sS'AWRRF'
p490
F0.0
sS'HPCUF'
p491
F1.0
sS'CBVTF'
p492
F1.0
sS'CRWG'
p493
F0.0
sS'ARKXF'
p494
F1.0
sS'PPRUF'
p495
F1.0
sS'BBY'
p496
F0.797
sS'CTWS'
p497
F1.0
sS'BBW'
p498
F0.563
sS'WAIR'
p499
F0.0
sS'BSQR'
p500
F0.0
sS'DECBF'
p501
F0.176
sS'THTPF'
p502
F1.0
sS'SWMAY'
p503
F0.001
sS'SFRRF'
p504
F0.0
sS'BDIMF'
p505
F0.016
sS'HUSQF'
p506
F0.007
sS'ATXDY'
p507
F1.0
sS'IKNX'
p508
F0.0
sS'VMI'
p509
F0.0
sS'TUP'
p510
F1.0
sS'CPGI'
p511
F0.0
sS'ATLKY'
p512
F0.0
sS'DNKN'
p513
F1.0
sS'OSIS'
p514
F0.0
sS'PZN'
p515
F0.0
sS'FNKLF'
p516
F0.0
sS'ATLKF'
p517
F0.0
sS'DADTF'
p518
F0.0
sS'RCTFF'
p519
F0.004
sS'SPAR'
p520
F0.0
sS'BLRZF'
p521
F1.0
sS'DBEXF'
p522
F0.0
sS'SWMAF'
p523
F0.001
sS'ALCO'
p524
F0.0
sS'CLGX'
p525
F0.0
sS'DSWL'
p526
F0.0
sS'TLUXF'
p527
F0.002
sS'BESIY'
p528
F0.0
sS'STMP'
p529
F0.0
sS'ANSS'
p530
F0.0
sS'VICL'
p531
F0.0
sS'ADVOF'
p532
F0.0
sS'TCKRF'
p533
F0.898
sS'KZMYY'
p534
F1.0
sS'ARQTF'
p535
F0.032
sS'TLF'
p536
F1.0
sS'DRTGF'
p537
F0.032
sS'MFCSF'
p538
F0.0
sS'RDIB'
p539
F0.994
sS'ORKLY'
p540
F0.026
sS'TREE'
p541
F1.0
sS'CYRLY'
p542
F1.0
sS'NPTN'
p543
F0.0
sS'CYT'
p544
F0.491
sS'BIIB'
p545
F0.463
sS'CAMP'
p546
F0.0
sS'POR'
p547
F1.0
sS'XCO'
p548
F1.0
sS'GBX'
p549
F0.388
sS'IDCC'
p550
F0.0
sS'PHIIK'
p551
F0.0
sS'IMI'
p552
F0.0
sS'POL'
p553
F0.0
sS'GWPRF'
p554
F1.0
sS'MAKSY'
p555
F1.0
sS'UNBLF'
p556
F0.0
sS'CYH'
p557
F1.0
sS'KHKSF'
p558
F1.0
sS'OMCM'
p559
F1.0
sS'OSTK'
p560
F1.0
sS'AKZOY'
p561
F0.988
sS'CROCF'
p562
F1.0
sS'PDS'
p563
F1.0
sS'SMED'
p564
F0.0
sS'CWT'
p565
F1.0
sS'TRAUF'
p566
F0.696
sS'SPWR'
p567
F1.0
sS'NLTBF'
p568
F0.101
sS'SVCBY'
p569
F0.196
sS'FRM'
p570
F0.0
sS'FWRD'
p571
F0.0
sS'AKZOF'
p572
F0.989
sS'EGAN'
p573
F1.0
sS'HASC'
p574
F1.0
sS'ZODFF'
p575
F1.0
sS'YUM'
p576
F1.0
sS'GHDX'
p577
F0.0
sS'NMPNF'
p578
F1.0
sS'AHFCF'
p579
F0.0
sS'FLKDF'
p580
F1.0
sS'RL'
p581
F0.016
sS'AIRI'
p582
F0.998
sS'ORINY'
p583
F0.0
sS'SNY'
p584
F0.0
sS'NGLDF'
p585
F1.0
sS'AIRM'
p586
F1.0
sS'APDSF'
p587
F0.0
sS'NICK'
p588
F0.478
sS'MRVL'
p589
F0.0
sS'AIRT'
p590
F0.0
sS'ORINF'
p591
F0.0
sS'AIOTF'
p592
F0.0
sS'CPXGF'
p593
F1.0
sS'MOCO'
p594
F0.0
sS'SNGNF'
p595
F0.0
sS'HUN'
p596
F0.001
sS'CHPFF'
p597
F0.952
sS'NICE'
p598
F0.0
sS'EGRAY'
p599
F0.0
sS'PAR'
p600
F0.0
sS'SRBIF'
p601
F1.0
sS'XEC'
p602
F1.0
sS'IMTEF'
p603
F1.0
sS'ENTG'
p604
F0.0
sS'CDGLF'
p605
F1.0
sS'WHLM'
p606
F0.0
sS'PAY'
p607
F0.0
sS'AAPL'
p608
F0.0
sS'ZAGG'
p609
F0.0
sS'WVVI'
p610
F1.0
sS'CKH'
p611
F1.0
sS'KOEBF'
p612
F0.001
sS'CHEF'
p613
F0.004
sS'PAA'
p614
F0.222
sS'ENTR'
p615
F0.0
sS'CKP'
p616
F0.0
sS'PAG'
p617
F0.72
sS'CDGLY'
p618
F1.0
sS'WSBHF'
p619
F1.0
sS'PAL'
p620
F1.0
sS'CKX'
p621
F0.0
sS'DPM'
p622
F1.0
sS'WWWW'
p623
F0.026
sS'PERF'
p624
F0.001
sS'SCMWY'
p625
F1.0
sS'AWX'
p626
F1.0
sS'AMSG'
p627
F0.008
sS'RNSDF'
p628
F0.997
sS'AMSC'
p629
F0.0
sS'AWR'
p630
F0.892
sS'ESVIF'
p631
F0.999
sS'RVP'
p632
F1.0
sS'AWK'
p633
F1.0
sS'INIS'
p634
F0.0
sS'AWI'
p635
F0.987
sS'UAMY'
p636
F1.0
sS'DCT'
p637
F1.0
sS'CRGWF'
p638
F1.0
sS'NGGTF'
p639
F1.0
sS'PCDVF'
p640
F1.0
sS'WIT'
p641
F0.0
sS'STLJF'
p642
F0.0
sS'MFRSF'
p643
F0.0
sS'DRRX'
p644
F1.0
sS'ETNTY'
p645
F0.977
sS'BCKIF'
p646
F0.446
sS'WEN'
p647
F1.0
sS'PXLW'
p648
F0.0
sS'SWZCF'
p649
F1.0
sS'BCKIY'
p650
F0.446
sS'TTWPF'
p651
F0.0
sS'HMNY'
p652
F0.0
sS'UDRGY'
p653
F0.006
sS'CSPI'
p654
F0.0
sS'OMG'
p655
F0.0
sS'ESYJY'
p656
F1.0
sS'MFRSY'
p657
F0.0
sS'GLOW'
p658
F0.056
sS'INGIF'
p659
F0.0
sS'QBCAF'
p660
F1.0
sS'AEBZY'
p661
F0.646
sS'PLCE'
p662
F1.0
sS'BVRDF'
p663
F0.82
sS'OII'
p664
F0.0
sS'CCL'
p665
F1.0
sS'IHS'
p666
F0.0
sS'PLCM'
p667
F0.0
sS'SPMYY'
p668
F0.984
sS'IHT'
p669
F1.0
sS'UUU'
p670
F0.0
sS'ANAD'
p671
F0.0
sS'ANAC'
p672
F0.0
sS'OAS'
p673
F1.0
sS'IRRHF'
p674
F0.089
sS'OIS'
p675
F0.0
sS'IHG'
p676
F1.0
sS'LNEGY'
p677
F0.326
sS'INGIY'
p678
F0.0
sS'HOGGF'
p679
F1.0
sS'AEP'
p680
F1.0
sS'AMAG'
p681
F0.0
sS'AER'
p682
F1.0
sS'DMD'
p683
F0.0
sS'CLMT'
p684
F0.02
sS'AEY'
p685
F0.0
sS'HRGLY'
p686
F0.0
sS'GBL'
p687
F0.982
sS'CVALF'
p688
F0.0
sS'WLDN'
p689
F0.0
sS'SWC'
p690
F1.0
sS'IBIBF'
p691
F1.0
sS'AMAT'
p692
F0.0
sS'AEC'
p693
F1.0
sS'AEE'
p694
F1.0
sS'EXQNF'
p695
F1.0
sS'CVTI'
p696
F1.0
sS'SSNC'
p697
F0.0
sS'MHGC'
p698
F1.0
sS'APOQF'
p699
F1.0
sS'AEM'
p700
F0.077
sS'CCG'
p701
F0.0
sS'AEO'
p702
F1.0
sS'CXUSF'
p703
F1.0
sS'SDVKY'
p704
F0.024
sS'MNGA'
p705
F1.0
sS'CRDS'
p706
F1.0
sS'GPRO'
p707
F0.0
sS'SQNM'
p708
F1.0
sS'MEEC'
p709
F0.0
sS'VTNR'
p710
F0.324
sS'ORKLF'
p711
F0.026
sS'CRDC'
p712
F1.0
sS'CTXS'
p713
F0.0
sS'SDVKF'
p714
F0.024
sS'KVHI'
p715
F0.0
sS'BUD'
p716
F1.0
sS'XRM'
p717
F1.0
sS'MRCBF'
p718
F1.0
sS'HNCMF'
p719
F0.0
sS'NZRFF'
p720
F1.0
sS'NFEC'
p721
F1.0
sS'BYCBF'
p722
F0.989
sS'PANRF'
p723
F0.0
sS'BBAVY'
p724
F0.123
sS'BBAVF'
p725
F0.117
sS'CSUWF'
p726
F0.0
sS'GDFZY'
p727
F0.981
sS'NOKBF'
p728
F0.0
sS'ITW'
p729
F0.321
sS'MSCC'
p730
F0.0
sS'NZRFY'
p731
F1.0
sS'EBOSY'
p732
F0.0
sS'HALO'
p733
F1.0
sS'CGJTF'
p734
F1.0
sS'HOT'
p735
F1.0
sS'SGLB'
p736
F0.0
sS'PSO'
p737
F0.861
sS'USLM'
p738
F0.0
sS'MOS'
p739
F0.0
sS'IMKTA'
p740
F1.0
sS'DPSGY'
p741
F0.977
sS'MOV'
p742
F0.0
sS'IACAF'
p743
F1.0
sS'FVLEF'
p744
F0.85
sS'PKIUF'
p745
F0.0
sS'MON'
p746
F0.992
sS'IPSEY'
p747
F0.804
sS'INWK'
p748
F0.862
sS'MOC'
p749
F0.0
sS'ASUR'
p750
F1.0
sS'RCON'
p751
F1.0
sS'OGXI'
p752
F1.0
sS'RMGOF'
p753
F0.701
sS'VPCO'
p754
F0.0
sS'GRC'
p755
F0.0
sS'ETR'
p756
F1.0
sS'CRVP'
p757
F0.337
sS'ETP'
p758
F1.0
sS'CICN'
p759
F1.0
sS'CICI'
p760
F1.0
sS'KMB'
p761
F0.433
sS'CRVW'
p762
F1.0
sS'DO'
p763
F1.0
sS'HNI'
p764
F0.698
sS'BCE'
p765
F1.0
sS'NUIN'
p766
F1.0
sS'BSPE'
p767
F1.0
sS'DL'
p768
F0.0
sS'CWLDY'
p769
F1.0
sS'TRNX'
p770
F0.459
sS'CWLDF'
p771
F1.0
sS'HYKCF'
p772
F0.0
sS'HNORY'
p773
F0.0
sS'LPI'
p774
F1.0
sS'ETE'
p775
F1.0
sS'SWM'
p776
F0.0
sS'ETH'
p777
F1.0
sS'TRNS'
p778
F0.0
sS'ETN'
p779
F0.004
sS'CRVL'
p780
F0.0
sS'BCR'
p781
F0.0
sS'ETM'
p782
F0.0
sS'AMKBF'
p783
F1.0
sS'SEPJF'
p784
F0.049
sS'WLMIF'
p785
F0.027
sS'AAC'
p786
F1.0
sS'SIAF'
p787
F0.97
sS'TESS'
p788
F0.0
sS'HCN'
p789
F0.0
sS'AINSF'
p790
F0.0
sS'SCVPF'
p791
F0.786
sS'PFFVF'
p792
F0.0
sS'MDAS'
p793
F0.953
sS'BPI'
p794
F0.974
sS'CRBBF'
p795
F0.0
sS'PGWFF'
p796
F0.0
sS'SCVPY'
p797
F0.786
sS'RUSHB'
p798
F1.0
sS'RUSHA'
p799
F1.0
sS'DCWRF'
p800
F1.0
sS'ROVI'
p801
F0.0
sS'NHPEF'
p802
F0.0
sS'WERN'
p803
F1.0
sS'SEV'
p804
F0.0
sS'CMHXF'
p805
F0.997
sS'TXLZF'
p806
F0.002
sS'CO'
p807
F0.0
sS'AKBLF'
p808
F1.0
sS'CL'
p809
F0.929
sS'CA'
p810
F0.999
sS'SRI'
p811
F0.0
sS'CF'
p812
F1.0
sS'CE'
p813
F0.038
sS'USNU'
p814
F1.0
sS'VUZI'
p815
F1.0
sS'GALE'
p816
F1.0
sS'CY'
p817
F0.0
sS'SRT'
p818
F0.0
sS'BTGOF'
p819
F0.454
sS'WKRCF'
p820
F0.005
sS'CR'
p821
F0.002
sS'CUYTF'
p822
F0.107
sS'CP'
p823
F1.0
sS'CW'
p824
F0.0
sS'PIR'
p825
F1.0
sS'TTEC'
p826
F0.001
sS'OUTKY'
p827
F0.004
sS'TBABF'
p828
F0.186
sS'AOGN'
p829
F1.0
sS'SAIA'
p830
F1.0
sS'MMIRF'
p831
F1.0
sS'CDMGF'
p832
F1.0
sS'FRRVY'
p833
F0.047
sS'SEPOF'
p834
F0.0
sS'HLX'
p835
F1.0
sS'HUBG'
p836
F0.0
sS'PRGO'
p837
F0.0
sS'SMBMY'
p838
F1.0
sS'USBL'
p839
F1.0
sS'CRXIF'
p840
F1.0
sS'BDMS'
p841
F0.036
sS'TDS'
p842
F1.0
sS'IRGIF'
p843
F0.95
sS'CLLZF'
p844
F0.167
sS'NMM'
p845
F1.0
sS'TDW'
p846
F1.0
sS'GIB'
p847
F0.007
sS'SGAPY'
p848
F0.0
sS'SYKE'
p849
F0.0
sS'IFON'
p850
F0.001
sS'PMLAY'
p851
F0.0
sS'PSEM'
p852
F0.0
sS'CVX'
p853
F1.0
sS'CVV'
p854
F0.0
sS'RONAF'
p855
F0.0
sS'SYRX'
p856
F0.95
sS'CVU'
p857
F0.0
sS'CVR'
p858
F0.0
sS'FRTSF'
p859
F1.0
sS'TEVJF'
p860
F0.0
sS'ZNGA'
p861
F0.0
sS'CVO'
p862
F0.685
sS'NVAX'
p863
F1.0
sS'LOV'
p864
F1.0
sS'SYRG'
p865
F1.0
sS'PWEB'
p866
F1.0
sS'CVI'
p867
F0.0
sS'PLXS'
p868
F0.0
sS'CVG'
p869
F0.0
sS'CVE'
p870
F0.862
sS'CVC'
p871
F1.0
sS'OSSUY'
p872
F0.002
sS'CVA'
p873
F0.001
sS'TOF'
p874
F0.0
sS'RANJF'
p875
F0.0
sS'LDBKY'
p876
F1.0
sS'YRAIF'
p877
F0.886
sS'GLXZ'
p878
F0.0
sS'MFCO'
p879
F0.0
sS'SBGI'
p880
F0.978
sS'EZPW'
p881
F0.0
sS'QTWW'
p882
F1.0
sS'CPGZF'
p883
F0.677
sS'RANJY'
p884
F0.0
sS'VLNSF'
p885
F0.0
sS'TKAGY'
p886
F1.0
sS'BIN'
p887
F0.822
sS'HPY'
p888
F0.013
sS'VC'
p889
F0.059
sS'DPUKY'
p890
F0.0
sS'MLSS'
p891
F0.0
sS'KONA'
p892
F1.0
sS'FSPKY'
p893
F0.0
sS'CSRLF'
p894
F0.804
sS'TACT'
p895
F0.0
sS'KONE'
p896
F0.0
sS'HPT'
p897
F1.0
sS'HPJ'
p898
F0.0
sS'CYTK'
p899
F1.0
sS'FSPKF'
p900
F0.0
sS'HNDNF'
p901
F1.0
sS'FDX'
p902
F1.0
sS'CSTPF'
p903
F0.0
sS'SGBI'
p904
F1.0
sS'DPUKF'
p905
F0.0
sS'ILKAY'
p906
F0.0
sS'VRS'
p907
F0.972
sS'NTGR'
p908
F0.0
sS'EBF'
p909
F0.0
sS'SAMOF'
p910
F0.0
sS'TGT'
p911
F1.0
sS'GVCXF'
p912
F0.0
sS'RTOBF'
p913
F1.0
sS'ARDM'
p914
F0.0
sS'VIVHY'
p915
F0.0
sS'WOLWF'
p916
F1.0
sS'LAMR'
p917
F0.0
sS'PNAJF'
p918
F0.0
sS'INGXF'
p919
F1.0
sS'FURGF'
p920
F0.0
sS'EBS'
p921
F0.0
sS'PHGFF'
p922
F0.006
sS'UHBTY'
p923
F1.0
sS'FLIDY'
p924
F0.013
sS'STADF'
p925
F1.0
sS'DRQ'
p926
F0.0
sS'TNKHF'
p927
F0.0
sS'FINGF'
p928
F0.0
sS'DRI'
p929
F1.0
sS'DRH'
p930
F0.0
sS'GRPTF'
p931
F0.0
sS'DEUZF'
p932
F0.0
sS'MGEE'
p933
F1.0
sS'GPRE'
p934
F0.006
sS'OEDV'
p935
F0.0
sS'ATROB'
p936
F0.0
sS'DRC'
p937
F0.0
sS'DRE'
p938
F1.0
sS'DRD'
p939
F1.0
sS'CONN'
p940
F1.0
sS'CGPZF'
p941
F0.8
sS'CVTPF'
p942
F0.0
sS'OHI'
p943
F1.0
sS'VCNYY'
p944
F0.925
sS'KLKBF'
p945
F1.0
sS'SXMDF'
p946
F1.0
sS'QBCRF'
p947
F1.0
sS'CABGY'
p948
F1.0
sS'AKTAF'
p949
F1.0
sS'UIL'
p950
F1.0
sS'VOSSF'
p951
F0.014
sS'FUPEF'
p952
F0.0
sS'KTMPF'
p953
F0.972
sS'UIS'
p954
F1.0
sS'ALLT'
p955
F0.0
sS'TOTZF'
p956
F1.0
sS'FLIDF'
p957
F0.029
sS'ZMTBF'
p958
F0.048
sS'ZCILY'
p959
F0.0
sS'JMHSF'
p960
F0.006
sS'D'
p961
F1.0
sS'PALAY'
p962
F0.0
sS'QSCGF'
p963
F0.0
sS'BNBMF'
p964
F0.0
sS'SSAAF'
p965
F0.0
sS'AGPPF'
p966
F0.961
sS'AGPPY'
p967
F0.937
sS'TOMZ'
p968
F0.0
sS'HCOM'
p969
F1.0
sS'GPN'
p970
F1.0
sS'CLFD'
p971
F0.0
sS'CLKFF'
p972
F0.0
sS'LNXSF'
p973
F0.0
sS'STLD'
p974
F0.0
sS'SANM'
p975
F0.0
sS'CXW'
p976
F0.0
sS'VSYS'
p977
F1.0
sS'WOSCF'
p978
F0.018
sS'PSMMY'
p979
F0.002
sS'VBHLF'
p980
F1.0
sS'HSNI'
p981
F0.078
sS'UFODF'
p982
F1.0
sS'STLY'
p983
F0.997
sS'CCNI'
p984
F0.0
sS'CXO'
p985
F1.0
sS'SGLOF'
p986
F0.896
sS'SURG'
p987
F0.0
sS'QNST'
p988
F0.0
sS'AULGF'
p989
F0.967
sS'HCSG'
p990
F0.0
sS'TCIJF'
p991
F0.0
sS'OC'
p992
F0.028
sS'HP'
p993
F1.0
sS'ELMD'
p994
F0.0
sS'HW'
p995
F0.003
sS'HT'
p996
F1.0
sS'TGATF'
p997
F0.996
sS'VNWTF'
p998
F0.0
sS'AAON'
p999
F0.0
sS'HH'
p1000
F0.961
sS'HI'
p1001
F0.002
sS'HL'
p1002
F0.996
sS'CTIG'
p1003
F0.0
sS'HA'
p1004
F1.0
sS'CTIB'
p1005
F1.0
sS'CTIC'
p1006
F0.816
sS'CMFAF'
p1007
F1.0
sS'HE'
p1008
F1.0
sS'IAALF'
p1009
F0.002
sS'HDELY'
p1010
F1.0
sS'IMN'
p1011
F0.0
sS'SCI'
p1012
F1.0
sS'UMICY'
p1013
F0.0
sS'ASHTY'
p1014
F1.0
sS'TROAF'
p1015
F1.0
sS'ALIOF'
p1016
F1.0
sS'SCIPF'
p1017
F1.0
sS'KLIC'
p1018
F0.0
sS'ERMAF'
p1019
F0.992
sS'CHTR'
p1020
F1.0
sS'ETRXF'
p1021
F1.0
sS'ERMAY'
p1022
F0.991
sS'XRS'
p1023
F1.0
sS'ALIOY'
p1024
F1.0
sS'ASHTF'
p1025
F1.0
sS'SDLLF'
p1026
F0.078
sS'INVE'
p1027
F0.481
sS'ACOR'
p1028
F0.0
sS'SCS'
p1029
F0.087
sS'JAZTF'
p1030
F1.0
sS'DAIO'
p1031
F0.306
sS'MLI'
p1032
F0.0
sS'CLMDF'
p1033
F1.0
sS'NEPT'
p1034
F1.0
sS'DRCSF'
p1035
F1.0
sS'PBY'
p1036
F1.0
sS'EUYNF'
p1037
F1.0
sS'PGPKY'
p1038
F1.0
sS'SMMT'
p1039
F1.0
sS'DRCSY'
p1040
F1.0
sS'MWA'
p1041
F0.0
sS'RTHVF'
p1042
F1.0
sS'YHOO'
p1043
F0.0
sS'CLMDY'
p1044
F1.0
sS'DTSI'
p1045
F0.0
sS'DRGDF'
p1046
F0.999
sS'JTXMF'
p1047
F0.0
sS'CHDN'
p1048
F0.07
sS'MATW'
p1049
F0.0
sS'VLPNF'
p1050
F0.549
sS'AVX'
p1051
F0.0
sS'AVY'
p1052
F0.291
sS'AVT'
p1053
F0.0
sS'SGMFF'
p1054
F0.0
sS'KTOS'
p1055
F0.154
sS'AVP'
p1056
F1.0
sS'SLLXF'
p1057
F0.0
sS'FQVLF'
p1058
F1.0
sS'MPW'
p1059
F1.0
sS'PRKWF'
p1060
F0.0
sS'UWN'
p1061
F1.0
sS'AVD'
p1062
F1.0
sS'MTPVY'
p1063
F1.0
sS'PSIX'
p1064
F0.994
sS'AVA'
p1065
F1.0
sS'MPX'
p1066
F1.0
sS'ESTE'
p1067
F1.0
sS'AXTI'
p1068
F0.0
sS'PYMOF'
p1069
F1.0
sS'CGEN'
p1070
F1.0
sS'BFGIF'
p1071
F0.545
sS'LFRGY'
p1072
F1.0
sS'SUI'
p1073
F0.0
sS'PRMW'
p1074
F0.0
sS'ACAT'
p1075
F0.025
sS'ACAR'
p1076
F0.0
sS'SECVY'
p1077
F1.0
sS'JBLU'
p1078
F1.0
sS'MEGGF'
p1079
F0.095
sS'HDSN'
p1080
F0.0
sS'TEGPY'
p1081
F1.0
sS'GUORY'
p1082
F0.638
sS'AZPN'
p1083
F0.0
sS'ISIS'
p1084
F0.0
sS'AVEO'
p1085
F1.0
sS'OBCI'
p1086
F0.0
sS'NBS'
p1087
F1.0
sS'NBR'
p1088
F0.998
sS'PSIZF'
p1089
F1.0
sS'TEF'
p1090
F1.0
sS'HUAY'
p1091
F1.0
sS'FCOGF'
p1092
F0.01
sS'TKR'
p1093
F0.0
sS'SLB'
p1094
F0.0
sS'NBL'
p1095
F1.0
sS'TER'
p1096
F0.0
sS'INTZ'
p1097
F0.0
sS'HUPOF'
p1098
F0.998
sS'GUORF'
p1099
F0.632
sS'BTVCY'
p1100
F0.989
sS'CORE'
p1101
F0.0
sS'EENEY'
p1102
F0.006
sS'IPKSF'
p1103
F0.0
sS'ADS'
p1104
F0.0
sS'BRWC'
p1105
F1.0
sS'DNB'
p1106
F1.0
sS'MOPHY'
p1107
F0.0
sS'DNN'
p1108
F1.0
sS'RHUHF'
p1109
F0.0
sS'HWCC'
p1110
F0.0
sS'GME'
p1111
F1.0
sS'CORT'
p1112
F1.0
sS'PARXF'
p1113
F1.0
sS'ADC'
p1114
F1.0
sS'DNR'
p1115
F1.0
sS'RCII'
p1116
F1.0
sS'UHAL'
p1117
F1.0
sS'ADM'
p1118
F0.0
sS'EENEF'
p1119
F0.005
sS'ADK'
p1120
F1.0
sS'BLZSF'
p1121
F0.0
sS'ADI'
p1122
F0.0
sS'REGN'
p1123
F0.983
sS'ATMUF'
p1124
F1.0
sS'VIAB'
p1125
F0.927
sS'HK'
p1126
F1.0
sS'VLPNY'
p1127
F0.513
sS'MHCRF'
p1128
F0.003
sS'BRS'
p1129
F1.0
sS'MLFNF'
p1130
F1.0
sS'VCISY'
p1131
F1.0
sS'NSSC'
p1132
F0.0
sS'BRO'
p1133
F0.049
sS'BRN'
p1134
F0.89
sS'SEBYF'
p1135
F0.746
sS'FCN'
p1136
F0.0
sS'NWPX'
p1137
F0.0
sS'DJCO'
p1138
F0.0
sS'EXCOF'
p1139
F0.001
sS'SGNT'
p1140
F0.0
sS'STRL'
p1141
F0.001
sS'BRC'
p1142
F0.0
sS'BFDI'
p1143
F0.0
sS'THMNY'
p1144
F1.0
sS'SURP'
p1145
F0.0
sS'KOOL'
p1146
F1.0
sS'CSRMF'
p1147
F1.0
sS'STKAF'
p1148
F0.0
sS'REGI'
p1149
F0.228
sS'TWO'
p1150
F0.0
sS'STMEF'
p1151
F0.0
sS'MEAOF'
p1152
F1.0
sS'VEMLY'
p1153
F0.0
sS'MFLX'
p1154
F0.0
sS'UCHC'
p1155
F1.0
sS'BRKWF'
p1156
F0.144
sS'CSRMY'
p1157
F1.0
sS'DISH'
p1158
F0.999
sS'ITALY'
p1159
F1.0
sS'TWX'
p1160
F0.695
sS'GNMK'
p1161
F1.0
sS'VIRC'
p1162
F0.897
sS'ICPBF'
p1163
F0.0
sS'SHNUF'
p1164
F0.0
sS'RKT'
p1165
F0.0
sS'VICR'
p1166
F0.0
sS'CLPI'
p1167
F1.0
sS'WIRE'
p1168
F0.0
sS'SEB'
p1169
F0.001
sS'RST'
p1170
F0.0
sS'SEGXF'
p1171
F1.0
sS'VRTX'
p1172
F1.0
sS'HF'
p1173
F1.0
sS'MCTZF'
p1174
F1.0
sS'RSKIA'
p1175
F0.0
sS'DYSL'
p1176
F0.963
sS'ALSK'
p1177
F1.0
sS'EAT'
p1178
F1.0
sS'ARKR'
p1179
F0.964
sS'VRNT'
p1180
F0.0
sS'ESV'
p1181
F0.0
sS'SHOR'
p1182
F0.001
sS'E'
p1183
F0.028
sS'CIDM'
p1184
F0.0
sS'SJW'
p1185
F1.0
sS'ESP'
p1186
F0.0
sS'HON'
p1187
F0.001
sS'DCCPF'
p1188
F0.0
sS'ANZFY'
p1189
F1.0
sS'ANZFF'
p1190
F1.0
sS'DCCPY'
p1191
F0.0
sS'ACSYF'
p1192
F0.0
sS'HOS'
p1193
F0.0
sS'EVTN'
p1194
F0.0
sS'TMRAY'
p1195
F0.104
sS'ESL'
p1196
F0.0
sS'TROW'
p1197
F0.0
sS'SHOO'
p1198
F0.0
sS'VSR'
p1199
F0.0
sS'IPXL'
p1200
F0.383
sS'DSPG'
p1201
F0.0
sS'AMKAF'
p1202
F1.0
sS'IMMZF'
p1203
F1.0
sS'AZNCF'
p1204
F0.0
sS'MCS'
p1205
F1.0
sS'ACKBF'
p1206
F1.0
sS'EXPGF'
p1207
F0.904
sS'KELYB'
p1208
F0.0
sS'IILG'
p1209
F0.957
sS'KELYA'
p1210
F0.0
sS'RELFF'
p1211
F1.0
sS'PERY'
p1212
F0.0
sS'CECE'
p1213
F0.001
sS'MBLX'
p1214
F1.0
sS'BRYFF'
p1215
F0.572
sS'VSI'
p1216
F1.0
sS'MCP'
p1217
F0.0
sS'DMMIF'
p1218
F1.0
sS'CECO'
p1219
F1.0
sS'TKTCY'
p1220
F1.0
sS'RYN'
p1221
F0.0
sS'NDSN'
p1222
F0.051
sS'EOG'
p1223
F1.0
sS'ADPMF'
p1224
F0.001
sS'JAZZ'
p1225
F0.0
sS'KGHPF'
p1226
F0.946
sS'RMLRF'
p1227
F0.0
sS'V'
p1228
F0.0
sS'EXLS'
p1229
F0.0
sS'SAFLY'
p1230
F1.0
sS'EXLP'
p1231
F1.0
sS'SAFLF'
p1232
F1.0
sS'SHVTF'
p1233
F0.0
sS'IDAS'
p1234
F0.902
sS'CDHPF'
p1235
F0.0
sS'KBDHF'
p1236
F1.0
sS'IGPPF'
p1237
F0.0
sS'AEHR'
p1238
F0.998
sS'ICLR'
p1239
F0.002
sS'ARCAY'
p1240
F0.999
sS'CCZFF'
p1241
F0.017
sS'SRHBF'
p1242
F1.0
sS'ROIC'
p1243
F1.0
sS'ROIA'
p1244
F0.038
sS'PWVI'
p1245
F1.0
sS'RKWBF'
p1246
F1.0
sS'INVN'
p1247
F0.0
sS'TYEKF'
p1248
F0.537
sS'URBN'
p1249
F1.0
sS'STKL'
p1250
F0.0
sS'ZCLCF'
p1251
F0.0
sS'FMC'
p1252
F0.977
sS'BNEFF'
p1253
F1.0
sS'PKTUF'
p1254
F0.0
sS'WENEF'
p1255
F0.0
sS'PMOIF'
p1256
F1.0
sS'UFPI'
p1257
F0.0
sS'AJMPF'
p1258
F0.0
sS'ARTNB'
p1259
F1.0
sS'SFEG'
p1260
F0.0
sS'SVCBF'
p1261
F0.196
sS'SNHFF'
p1262
F0.003
sS'SYEV'
p1263
F0.0
sS'CCOI'
p1264
F0.0
sS'STHLY'
p1265
F0.001
sS'FULO'
p1266
F1.0
sS'FIS'
p1267
F0.006
sS'CAFZF'
p1268
F0.013
sS'VLKPY'
p1269
F1.0
sS'VAL'
p1270
F0.989
sS'ADTN'
p1271
F0.0
sS'AAUKY'
p1272
F0.0
sS'PTX'
p1273
F0.0
sS'TPITL'
p1274
F1.0
sS'NWL'
p1275
F0.013
sS'AAUKF'
p1276
F0.0
sS'DEYU'
p1277
F0.0
sS'VAR'
p1278
F0.001
sS'GCEH'
p1279
F1.0
sS'VLKPF'
p1280
F1.0
sS'BRLXF'
p1281
F1.0
sS'NWN'
p1282
F0.999
sS'RLH'
p1283
F1.0
sS'PSTR'
p1284
F1.0
sS'PLATF'
p1285
F0.0
sS'APCFF'
p1286
F1.0
sS'TUFUF'
p1287
F0.0
sS'ODC'
p1288
F0.0
sS'EFTB'
p1289
F1.0
sS'LNAGF'
p1290
F0.442
sS'ENYTF'
p1291
F1.0
sS'TCLCF'
p1292
F0.0
sS'SPRT'
p1293
F0.0
sS'EXR'
p1294
F1.0
sS'ODFL'
p1295
F1.0
sS'ARBFF'
p1296
F0.0
sS'VCOGF'
p1297
F0.0
sS'COSWF'
p1298
F1.0
sS'CMN'
p1299
F0.0
sS'RFIL'
p1300
F0.0
sS'MAS'
p1301
F0.007
sS'CMI'
p1302
F0.0
sS'DTST'
p1303
F1.0
sS'CMG'
p1304
F1.0
sS'CME'
p1305
F0.997
sS'ACGPF'
p1306
F0.001
sS'WFSTF'
p1307
F0.0
sS'GFPTF'
p1308
F0.0
sS'VISI'
p1309
F0.0
sS'JOEZ'
p1310
F0.997
sS'ASEI'
p1311
F0.0
sS'CTAGY'
p1312
F0.063
sS'SU'
p1313
F1.0
sS'PCL'
p1314
F0.008
sS'SPOXF'
p1315
F0.0
sS'CHKE'
p1316
F1.0
sS'CMT'
p1317
F0.034
sS'CMS'
p1318
F0.998
sS'PCG'
p1319
F1.0
sS'SREV'
p1320
F0.0
sS'CMP'
p1321
F0.031
sS'SAPIF'
p1322
F0.595
sS'ORN'
p1323
F0.998
sS'FEIC'
p1324
F0.0
sS'VTG'
p1325
F0.366
sS'TIK'
p1326
F0.994
sS'AUTLF'
p1327
F0.0
sS'MTWD'
p1328
F0.0
sS'FEIM'
p1329
F0.0
sS'UVV'
p1330
F0.0
sS'FLWS'
p1331
F1.0
sS'EZIDF'
p1332
F1.0
sS'CDDRF'
p1333
F0.0
sS'FNGN'
p1334
F0.0
sS'PCLN'
p1335
F0.0
sS'AUTLY'
p1336
F0.0
sS'BRFS'
p1337
F0.0
sS'BMER'
p1338
F0.0
sS'FSLR'
p1339
F0.0
sS'DIOD'
p1340
F0.0
sS'STRM'
p1341
F0.0
sS'GRMN'
p1342
F0.0
sS'EVOTF'
p1343
F0.001
sS'WGA'
p1344
F0.0
sS'PSMH'
p1345
F1.0
sS'DSX'
p1346
F1.0
sS'MTEX'
p1347
F1.0
sS'DSW'
p1348
F1.0
sS'DST'
p1349
F0.005
sS'BKYI'
p1350
F1.0
sS'CMLEF'
p1351
F1.0
sS'DSS'
p1352
F0.0
sS'SAPGF'
p1353
F0.997
sS'PSYTF'
p1354
F0.999
sS'TLLP'
p1355
F1.0
sS'BTDPF'
p1356
F0.006
sS'TMTNF'
p1357
F0.242
sS'AQPBF'
p1358
F0.0
sS'HMRZF'
p1359
F1.0
sS'TLPFF'
p1360
F1.0
sS'SGTCF'
p1361
F0.0
sS'EMKR'
p1362
F0.0
sS'MYRY'
p1363
F0.0
sS'MD'
p1364
F0.0
sS'MG'
p1365
F0.0
sS'DPDW'
p1366
F0.0
sS'MA'
p1367
F1.0
sS'ALOG'
p1368
F0.0
sS'INT'
p1369
F0.0
sS'HLYHY'
p1370
F0.026
sS'MO'
p1371
F1.0
sS'MN'
p1372
F0.0
sS'NCMGF'
p1373
F0.0
sS'INS'
p1374
F0.0
sS'MU'
p1375
F0.0
sS'MT'
p1376
F0.369
sS'INN'
p1377
F1.0
sS'INO'
p1378
F1.0
sS'NDAQ'
p1379
F0.853
sS'SE'
p1380
F1.0
sS'ALOT'
p1381
F0.0
sS'GRCLF'
p1382
F0.001
sS'GPOLY'
p1383
F0.0
sS'GMT'
p1384
F1.0
sS'SD'
p1385
F1.0
sS'HEDYY'
p1386
F0.986
sS'SUDKY'
p1387
F1.0
sS'RWWI'
p1388
F0.0
sS'ETOLF'
p1389
F1.0
sS'MONIF'
p1390
F1.0
sS'PSPSF'
p1391
F1.0
sS'GAPFF'
p1392
F0.0
sS'AKS'
p1393
F0.948
sS'AKR'
p1394
F1.0
sS'AMGN'
p1395
F0.0
sS'COSI'
p1396
F1.0
sS'GUDHF'
p1397
F0.003
sS'DOX'
p1398
F0.0
sS'COST'
p1399
F1.0
sS'HURN'
p1400
F0.0
sS'EBIX'
p1401
F1.0
sS'GLP'
p1402
F0.0
sS'SNWV'
p1403
F1.0
sS'SRDX'
p1404
F0.0
sS'EDUC'
p1405
F0.0
sS'DOV'
p1406
F0.021
sS'AIXXF'
p1407
F0.012
sS'KLNDF'
p1408
F1.0
sS'GLW'
p1409
F0.0
sS'CZMWF'
p1410
F0.001
sS'GTMM'
p1411
F1.0
sS'BSX'
p1412
F0.0
sS'TRR'
p1413
F0.0
sS'POWR'
p1414
F0.0
sS'EGAS'
p1415
F1.0
sS'LSLCF'
p1416
F0.027
sS'ANXGF'
p1417
F0.0
sS'XXIA'
p1418
F0.0
sS'PBH'
p1419
F0.837
sS'FLRAF'
p1420
F0.346
sS'MSON'
p1421
F0.0
sS'GEDRY'
p1422
F0.986
sS'NVZMY'
p1423
F0.0
sS'SCHN'
p1424
F0.0
sS'BUGDF'
p1425
F0.0
sS'SCHL'
p1426
F1.0
sS'SNHFY'
p1427
F0.007
sS'TMOAF'
p1428
F0.952
sS'CZMWY'
p1429
F0.001
sS'KKOAF'
p1430
F0.0
sS'SYXXF'
p1431
F1.0
sS'XNPT'
p1432
F1.0
sS'ELLI'
p1433
F0.0
sS'YRCW'
p1434
F1.0
sS'HST'
p1435
F1.0
sS'F'
p1436
F0.0
sS'GWEPF'
p1437
F0.0
sS'CTHR'
p1438
F0.0
sS'TUIFF'
p1439
F0.262
sS'PEGRF'
p1440
F1.0
sS'AUQ'
p1441
F1.0
sS'PFTI'
p1442
F1.0
sS'DSDVF'
p1443
F0.016
sS'KNDI'
p1444
F1.0
sS'OPTT'
p1445
F0.0
sS'AUY'
p1446
F0.0
sS'MATR'
p1447
F1.0
sS'UHS'
p1448
F1.0
sS'GUJZF'
p1449
F1.0
sS'BDCYY'
p1450
F0.009
sS'MPC'
p1451
F0.001
sS'PSSEF'
p1452
F0.424
sS'ACPW'
p1453
F0.0
sS'RCMT'
p1454
F0.0
sS'INUV'
p1455
F0.804
sS'MMP'
p1456
F0.444
sS'MMS'
p1457
F0.0
sS'AGXXF'
p1458
F0.392
sS'MMM'
p1459
F0.0
sS'RELEY'
p1460
F1.0
sS'MMI'
p1461
F1.0
sS'GNCMA'
p1462
F1.0
sS'GNCMB'
p1463
F1.0
sS'TNISF'
p1464
F0.059
sS'STEV'
p1465
F0.0
sS'HALFF'
p1466
F1.0
sS'TNH'
p1467
F1.0
sS'MMC'
p1468
F0.999
sS'EQY'
p1469
F1.0
sS'WSR'
p1470
F1.0
sS'MTGRY'
p1471
F0.0
sS'BAS'
p1472
F0.44
sS'VVUS'
p1473
F0.074
sS'CETV'
p1474
F1.0
sS'BAX'
p1475
F0.965
sS'RTIX'
p1476
F0.816
sS'ERF'
p1477
F1.0
sS'GM'
p1478
F0.007
sS'RDIAF'
p1479
F1.0
sS'IART'
p1480
F0.0
sS'KOS'
p1481
F1.0
sS'MTGRF'
p1482
F0.0
sS'COPLF'
p1483
F1.0
sS'BAH'
p1484
F0.623
sS'PSMMF'
p1485
F0.002
sS'ADEP'
p1486
F0.0
sS'QLTY'
p1487
F0.002
sS'WOOF'
p1488
F0.18
sS'DATA'
p1489
F0.0
sS'XDSL'
p1490
F0.0
sS'BJRI'
p1491
F1.0
sS'BRNGF'
p1492
F1.0
sS'SDMHF'
p1493
F0.972
sS'VPG'
p1494
F0.0
sS'SIFY'
p1495
F0.991
sS'MDCO'
p1496
F0.0
sS'GENSF'
p1497
F0.0
sS'PBEGF'
p1498
F1.0
sS'CELG'
p1499
F0.0
sS'NATUF'
p1500
F0.262
sS'WETF'
p1501
F0.0
sS'MYE'
p1502
F0.0
sS'GLCNF'
p1503
F0.02
sS'FNNNF'
p1504
F1.0
sS'NEOG'
p1505
F0.0
sS'STB'
p1506
F0.042
sS'PTEN'
p1507
F1.0
sS'MPG'
p1508
F0.0
sS'STN'
p1509
F0.003
sS'STO'
p1510
F1.0
sS'ASOMY'
p1511
F1.0
sS'STJ'
p1512
F0.0
sS'HAE'
p1513
F0.0
sS'WLFC'
p1514
F1.0
sS'HTLD'
p1515
F1.0
sS'MRO'
p1516
F1.0
sS'ASOMF'
p1517
F1.0
sS'GOVX'
p1518
F1.0
sS'WNARF'
p1519
F0.0
sS'STR'
p1520
F1.0
sS'STS'
p1521
F0.0
sS'UVIC'
p1522
F0.999
sS'HYGS'
p1523
F1.0
sS'OISHF'
p1524
F1.0
sS'STZ'
p1525
F1.0
sS'TKMAF'
p1526
F1.0
sS'SRHBY'
p1527
F1.0
sS'EDGW'
p1528
F0.0
sS'TRKNF'
p1529
F0.0
sS'JKELF'
p1530
F0.001
sS'RDEN'
p1531
F0.874
sS'CERN'
p1532
F0.076
sS'EOXFF'
p1533
F1.0
sS'NCR'
p1534
F0.003
sS'NCS'
p1535
F0.001
sS'WTBCY'
p1536
F1.0
sS'SLHGF'
p1537
F0.995
sS'EZRHF'
p1538
F1.0
sS'EZRHY'
p1539
F1.0
sS'BMBRF'
p1540
F0.675
sS'TRMB'
p1541
F0.0
sS'CERS'
p1542
F1.0
sS'HINKF'
p1543
F0.994
sS'GPX'
p1544
F0.0
sS'SLNM'
p1545
F1.0
sS'GENE'
p1546
F1.0
sS'GENC'
p1547
F0.0
sS'ACC'
p1548
F1.0
sS'KKOYY'
p1549
F0.0
sS'ABFOF'
p1550
F1.0
sS'SEMFF'
p1551
F1.0
sS'KNX'
p1552
F1.0
sS'SPTN'
p1553
F0.0
sS'ECOL'
p1554
F0.007
sS'SHLO'
p1555
F0.008
sS'RDRUY'
p1556
F1.0
sS'VFC'
p1557
F0.0
sS'RDMKF'
p1558
F0.0
sS'NEM'
p1559
F0.308
sS'TISI'
p1560
F0.0
sS'PGH'
p1561
F1.0
sS'PBIO'
p1562
F1.0
sS'PDEX'
p1563
F0.0
sS'SCL'
p1564
F0.0
sS'TNSGF'
p1565
F0.024
sS'GNHAF'
p1566
F0.001
sS'RT'
p1567
F1.0
sS'WTR'
p1568
F0.0
sS'WTS'
p1569
F0.0
sS'RP'
p1570
F0.0
sS'IDPPF'
p1571
F0.0
sS'CMSQF'
p1572
F0.0
sS'THC'
p1573
F1.0
sS'YPFSF'
p1574
F1.0
sS'DYN'
p1575
F0.0
sS'BRKR'
p1576
F0.0
sS'GERS'
p1577
F1.0
sS'DLUEY'
p1578
F1.0
sS'CMSQY'
p1579
F0.0
sS'WTI'
p1580
F1.0
sS'VNRCF'
p1581
F1.0
sS'CYMHF'
p1582
F0.0
sS'OMUKF'
p1583
F0.028
sS'EXXI'
p1584
F1.0
sS'ATAI'
p1585
F0.0
sS'NEE'
p1586
F1.0
sS'KPLUY'
p1587
F1.0
sS'OSMIF'
p1588
F0.0
sS'BOLYY'
p1589
F1.0
sS'HRT'
p1590
F0.006
sS'MRK'
p1591
F0.001
sS'TPL'
p1592
F0.0
sS'SZGPF'
p1593
F0.0
sS'HRS'
p1594
F0.0
sS'HLIT'
p1595
F0.0
sS'HRL'
p1596
F0.0
sS'HENOF'
p1597
F0.628
sS'ZLTQ'
p1598
F0.928
sS'MCRUF'
p1599
F1.0
sS'ITEX'
p1600
F0.0
sS'DIRI'
p1601
F0.995
sS'PACB'
p1602
F1.0
sS'HRC'
p1603
F0.0
sS'BASI'
p1604
F0.004
sS'HNNA'
p1605
F1.0
sS'GGAZF'
p1606
F1.0
sS'ZTCOY'
p1607
F0.057
sS'ABLZF'
p1608
F0.001
sS'GTOMY'
p1609
F0.0
sS'DRLLF'
p1610
F0.0
sS'IACI'
p1611
F0.027
sS'QNTQF'
p1612
F0.881
sS'LAKE'
p1613
F0.073
sS'SITO'
p1614
F0.997
sS'RHI'
p1615
F0.0
sS'KAR'
p1616
F0.002
sS'RMD'
p1617
F0.0
sS'DRHKF'
p1618
F0.0
sS'IVAC'
p1619
F0.0
sS'DTNOF'
p1620
F0.0
sS'OFLX'
p1621
F0.0
sS'TAIT'
p1622
F0.0
sS'MTDR'
p1623
F1.0
sS'BECVY'
p1624
F1.0
sS'TFFTF'
p1625
F1.0
sS'FCFS'
p1626
F0.069
sS'UXCLF'
p1627
F1.0
sS'CPGVY'
p1628
F0.677
sS'SUP'
p1629
F0.737
sS'HZNP'
p1630
F0.0
sS'WTT'
p1631
F0.0
sS'GLLA'
p1632
F1.0
sS'BMRN'
p1633
F1.0
sS'BMRA'
p1634
F0.0
sS'HFC'
p1635
F0.0
sS'EMLAF'
p1636
F1.0
sS'SGMA'
p1637
F0.001
sS'HSY'
p1638
F1.0
sS'TTOFY'
p1639
F1.0
sS'MOVAA'
p1640
F0.0
sS'DMND'
p1641
F1.0
sS'RTN'
p1642
F0.001
sS'RTI'
p1643
F0.0
sS'MTUAF'
p1644
F0.948
sS'RTK'
p1645
F1.0
sS'JCTCF'
p1646
F0.0
sS'ANNO'
p1647
F1.0
sS'MDXG'
p1648
F0.0
sS'TCKGY'
p1649
F1.0
sS'ALNY'
p1650
F0.0
sS'PLNR'
p1651
F0.0
sS'HCCI'
p1652
F0.0
sS'DISCA'
p1653
F1.0
sS'DISCB'
p1654
F1.0
sS'EVOL'
p1655
F1.0
sS'OXY'
p1656
F0.0
sS'AEIS'
p1657
F0.0
sS'ENG'
p1658
F0.0
sS'IAMUY'
p1659
F0.018
sS'LGDDF'
p1660
F1.0
sS'DISCK'
p1661
F1.0
sS'MDPEB'
p1662
F0.932
sS'STNR'
p1663
F0.0
sS'OXM'
p1664
F1.0
sS'ENR'
p1665
F0.01
sS'ARMZF'
p1666
F0.0
sS'ENV'
p1667
F0.0
sS'IAMUF'
p1668
F0.01
sS'PSJEY'
p1669
F1.0
sS'CDHSF'
p1670
F0.0
sS'ENZ'
p1671
F0.0
sS'SSEZY'
p1672
F0.003
sS'FCRGF'
p1673
F1.0
sS'HOCFY'
p1674
F0.003
sS'SARDY'
p1675
F0.0
sS'MLLGF'
p1676
F0.0
sS'IHCPY'
p1677
F0.582
sS'AHBIF'
p1678
F1.0
sS'CZR'
p1679
F1.0
sS'WTW'
p1680
F1.0
sS'Z'
p1681
F0.0
sS'WCC'
p1682
F0.0
sS'DEIPY'
p1683
F0.999
sS'GWRE'
p1684
F0.0
sS'SMIT'
p1685
F0.0
sS'CLDT'
p1686
F1.0
sS'PTEFF'
p1687
F1.0
sS'WIFI'
p1688
F1.0
sS'IHCPF'
p1689
F0.575
sS'MLILF'
p1690
F0.0
sS'RSTI'
p1691
F0.0
sS'SARDF'
p1692
F0.0
sS'HOCFF'
p1693
F0.004
sS'RGP'
p1694
F1.0
sS'CVGI'
p1695
F0.0
sS'ELOS'
p1696
F0.0
sS'DELRF'
p1697
F1.0
sS'XPO'
p1698
F0.0
sS'ATO'
p1699
F1.0
sS'PCOM'
p1700
F1.0
sS'PDGRY'
p1701
F0.0
sS'MERU'
p1702
F1.0
sS'GOV'
p1703
F0.984
sS'ATI'
p1704
F0.006
sS'ATW'
p1705
F1.0
sS'ATU'
p1706
F0.584
sS'ATR'
p1707
F0.004
sS'PHII'
p1708
F0.0
sS'TNAV'
p1709
F0.0
sS'ELON'
p1710
F0.869
sS'MERC'
p1711
F0.0
sS'ZBRA'
p1712
F0.0
sS'CVGW'
p1713
F0.0
sS'JGPK'
p1714
F0.974
sS'TFSCF'
p1715
F1.0
sS'JYHW'
p1716
F1.0
sS'CAKFY'
p1717
F0.0
sS'DIDAF'
p1718
F1.0
sS'DAEG'
p1719
F0.0
sS'HNNMY'
p1720
F1.0
sS'CYIG'
p1721
F1.0
sS'PODD'
p1722
F0.0
sS'AVIFY'
p1723
F0.997
sS'SEE'
p1724
F1.0
sS'DGII'
p1725
F0.0
sS'BVILF'
p1726
F0.0
sS'EML'
p1727
F0.0
sS'TTEK'
p1728
F0.0
sS'PVH'
p1729
F0.995
sS'SEM'
p1730
F0.313
sS'NROM'
p1731
F1.0
sS'VNDA'
p1732
F1.0
sS'BIOYF'
p1733
F0.0
sS'WOLZY'
p1734
F1.0
sS'PNY'
p1735
F1.0
sS'RYAOF'
p1736
F1.0
sS'CTOHF'
p1737
F1.0
sS'CLH'
p1738
F0.005
sS'EVTCY'
p1739
F0.001
sS'FRD'
p1740
F0.0
sS'CLD'
p1741
F0.056
sS'CJJD'
p1742
F0.0
sS'CLF'
p1743
F0.0
sS'FRO'
p1744
F0.988
sS'CLB'
p1745
F0.0
sS'CLC'
p1746
F0.0
sS'FRS'
p1747
F1.0
sS'JAKK'
p1748
F1.0
sS'FRP'
p1749
F0.785
sS'CLX'
p1750
F0.968
sS'RTLLF'
p1751
F0.0
sS'IBAL'
p1752
F0.0
sS'FRT'
p1753
F1.0
sS'CARB'
p1754
F1.0
sS'HMSY'
p1755
F0.0
sS'CLW'
p1756
F0.0
sS'MRVC'
p1757
F0.004
sS'CLR'
p1758
F1.0
sS'CLS'
p1759
F0.0
sS'INFN'
p1760
F0.0
sS'EXPE'
p1761
F0.001
sS'SNMX'
p1762
F1.0
sS'FDP'
p1763
F0.0
sS'SPTGY'
p1764
F1.0
sS'XLNX'
p1765
F0.0
sS'ITABF'
p1766
F1.0
sS'IDGBF'
p1767
F1.0
sS'MLOOF'
p1768
F0.0
sS'SNYNF'
p1769
F0.0
sS'INFA'
p1770
F0.0
sS'TEU'
p1771
F0.0
sS'ZEP'
p1772
F0.802
sS'RGC'
p1773
F1.0
sS'INFY'
p1774
F0.0
sS'INFU'
p1775
F1.0
sS'ACLLF'
p1776
F1.0
sS'DPZUF'
p1777
F0.0
sS'MTUAY'
p1778
F0.945
sS'BDNNF'
p1779
F0.093
sS'CHWWF'
p1780
F1.0
sS'DM'
p1781
F1.0
sS'DGEAF'
p1782
F1.0
sS'DK'
p1783
F0.819
sS'TTWO'
p1784
F0.0
sS'MOKOF'
p1785
F0.0
sS'DF'
p1786
F0.0
sS'PPXLF'
p1787
F0.0
sS'DD'
p1788
F0.998
sS'DE'
p1789
F1.0
sS'VSSPY'
p1790
F0.0
sS'BPL'
p1791
F0.987
sS'PMFG'
p1792
F0.0
sS'SWX'
p1793
F1.0
sS'PPSI'
p1794
F0.027
sS'TSCDY'
p1795
F0.871
sS'DY'
p1796
F0.0
sS'DV'
p1797
F0.0
sS'DW'
p1798
F0.009
sS'PMNXF'
p1799
F1.0
sS'KEYUF'
p1800
F1.0
sS'BDNNY'
p1801
F0.174
sS'CRIS'
p1802
F1.0
sS'IVRVF'
p1803
F1.0
sS'ASFTF'
p1804
F1.0
sS'GRYIY'
p1805
F0.133
sS'ADP'
p1806
F0.802
sS'NANO'
p1807
F0.0
sS'OMN'
p1808
F0.002
sS'SSAAY'
p1809
F0.0
sS'SDIPF'
p1810
F1.0
sS'SBSA'
p1811
F1.0
sS'CERZF'
p1812
F1.0
sS'LARRF'
p1813
F0.021
sS'SEPJY'
p1814
F0.048
sS'TGB'
p1815
F0.473
sS'NANX'
p1816
F0.95
sS'TGA'
p1817
F0.0
sS'ATVI'
p1818
F0.0
sS'TGD'
p1819
F1.0
sS'PYCFF'
p1820
F0.0
sS'BNKPF'
p1821
F1.0
sS'TGH'
p1822
F1.0
sS'PXSLY'
p1823
F0.003
sS'MYGN'
p1824
F0.0
sS'NCMI'
p1825
F0.84
sS'INTG'
p1826
F1.0
sS'SEMG'
p1827
F0.999
sS'YUGVF'
p1828
F0.742
sS'TBVPY'
p1829
F0.999
sS'TPI'
p1830
F1.0
sS'SHLRF'
p1831
F0.997
sS'VLKAF'
p1832
F1.0
sS'HCMLF'
p1833
F1.0
sS'MLM'
p1834
F0.0
sS'INTU'
p1835
F0.153
sS'INTT'
p1836
F0.0
sS'MLP'
p1837
F1.0
sS'HCMLY'
p1838
F1.0
sS'CMDI'
p1839
F1.0
sS'MVTG'
p1840
F1.0
sS'DHX'
p1841
F0.868
sS'UMICF'
p1842
F0.0
sS'FYFFF'
p1843
F0.0
sS'DHT'
p1844
F1.0
sS'PVCT'
p1845
F1.0
sS'DHR'
p1846
F0.0
sS'AJG'
p1847
F0.0
sS'RHHBY'
p1848
F0.001
sS'CUEYY'
p1849
F1.0
sS'EBTTF'
p1850
F1.0
sS'BVII'
p1851
F1.0
sS'TIOIF'
p1852
F1.0
sS'PBGZY'
p1853
F0.004
sS'NRG'
p1854
F0.266
sS'GSIG'
p1855
F0.0
sS'GEDSF'
p1856
F0.986
sS'SBOEF'
p1857
F0.003
sS'SCIA'
p1858
F0.0
sS'STRDF'
p1859
F0.855
sS'ZMPLF'
p1860
F0.984
sS'IDHCF'
p1861
F0.989
sS'JIVE'
p1862
F0.001
sS'GTLS'
p1863
F0.005
sS'CTEI'
p1864
F1.0
sS'GIGA'
p1865
F0.927
sS'PX'
p1866
F1.0
sS'CYSVF'
p1867
F1.0
sS'ASAGF'
p1868
F0.0
sS'WG'
p1869
F0.001
sS'VSCFF'
p1870
F0.996
sS'WD'
p1871
F1.0
sS'WSTG'
p1872
F0.0
sS'WM'
p1873
F0.986
sS'SJM'
p1874
F0.257
sS'VHI'
p1875
F0.02
sS'WNXDF'
p1876
F0.331
sS'GLDD'
p1877
F0.979
sS'WNXDY'
p1878
F0.314
sS'WU'
p1879
F0.218
sS'TCIZF'
p1880
F0.0
sS'SECCY'
p1881
F0.0
sS'SPXCY'
p1882
F0.0
sS'DLAKY'
p1883
F1.0
sS'MFRM'
p1884
F1.0
sS'ULBI'
p1885
F0.0
sS'MFRI'
p1886
F0.001
sS'MIL'
p1887
F0.0
sS'HSC'
p1888
F0.159
sS'OVTI'
p1889
F0.0
sS'ARII'
p1890
F1.0
sS'TSRI'
p1891
F0.0
sS'LDR'
p1892
F0.0
sS'RYDBF'
p1893
F0.023
sS'ANGGY'
p1894
F1.0
sS'ARIA'
p1895
F0.0
sS'SGPEY'
p1896
F0.0
sS'WRTBY'
p1897
F0.317
sS'KNKCF'
p1898
F0.0
sS'RIO'
p1899
F0.598
sS'HSP'
p1900
F0.004
sS'PKPYY'
p1901
F0.021
sS'ANGGF'
p1902
F1.0
sS'ARIS'
p1903
F1.0
sS'AEYIF'
p1904
F1.0
sS'NYTAB'
p1905
F0.985
sS'CTSH'
p1906
F0.0
sS'JMHLY'
p1907
F0.025
sS'KNL'
p1908
F0.296
sS'VODPF'
p1909
F0.0
sS'HAL'
p1910
F0.02
sS'ZTSTF'
p1911
F0.058
sS'EXLLF'
p1912
F0.0
sS'CTSO'
p1913
F1.0
sS'ELMUF'
p1914
F0.735
sS'H'
p1915
F0.0
sS'KND'
p1916
F0.951
sS'EQT'
p1917
F1.0
sS'SAFM'
p1918
F0.0
sS'SEIGF'
p1919
F0.568
sS'ACCKF'
p1920
F1.0
sS'ELMUY'
p1921
F0.726
sS'HAR'
p1922
F0.0
sS'HAS'
p1923
F0.025
sS'ENRFF'
p1924
F0.024
sS'PH'
p1925
F0.0
sS'SCND'
p1926
F0.268
sS'PCTVF'
p1927
F1.0
sS'OMVJF'
p1928
F0.073
sS'BRGYY'
p1929
F1.0
sS'SYK'
p1930
F0.0
sS'OMCL'
p1931
F0.0
sS'REIS'
p1932
F0.0
sS'NRIFF'
p1933
F0.0
sS'CEMP'
p1934
F1.0
sS'CRWN'
p1935
F1.0
sS'XEL'
p1936
F1.0
sS'CEMI'
p1937
F1.0
sS'EROFF'
p1938
F0.0
sS'BWMG'
p1939
F1.0
sS'SYY'
p1940
F0.0
sS'SYX'
p1941
F0.0
sS'TOWR'
p1942
F0.014
sS'EDGXF'
p1943
F1.0
sS'GPIC'
p1944
F0.0
sS'EME'
p1945
F0.0
sS'EFX'
p1946
F0.172
sS'RGR'
p1947
F0.095
sS'FRACF'
p1948
F0.0
sS'KZMYF'
p1949
F1.0
sS'EMC'
p1950
F0.0
sS'OCGPF'
p1951
F0.708
sS'DYCZF'
p1952
F1.0
sS'EMN'
p1953
F0.003
sS'HELE'
p1954
F0.0
sS'REZIF'
p1955
F1.0
sS'ICHGF'
p1956
F1.0
sS'BOARF'
p1957
F0.0
sS'CNSL'
p1958
F0.993
sS'CRHCF'
p1959
F0.0
sS'TFIFF'
p1960
F0.366
sS'ZCCMF'
p1961
F1.0
sS'FXEN'
p1962
F0.0
sS'BHPLF'
p1963
F1.0
sS'DLMAF'
p1964
F1.0
sS'CCMP'
p1965
F0.0
sS'HAYPY'
p1966
F1.0
sS'SCOR'
p1967
F0.0
sS'HAYPF'
p1968
F1.0
sS'TTRAF'
p1969
F0.436
sS'CLCT'
p1970
F0.025
sS'HOYFF'
p1971
F0.0
sS'PPEHF'
p1972
F0.0
sS'PTEEF'
p1973
F1.0
sS'FUPBY'
p1974
F0.0
sS'HRGLF'
p1975
F0.0
sS'CLPBY'
p1976
F0.0
sS'GGGSF'
p1977
F1.0
sS'FGROY'
p1978
F1.0
sS'OGKJL'
p1979
F0.975
sS'FOR'
p1980
F1.0
sS'AFFX'
p1981
F0.0
sS'CLUB'
p1982
F1.0
sS'UNRDY'
p1983
F0.0
sS'RENFF'
p1984
F1.0
sS'VIAS'
p1985
F0.767
sS'BLGPY'
p1986
F0.0
sS'CPYYF'
p1987
F0.01
sS'ECHO'
p1988
F0.0
sS'CPYYY'
p1989
F0.01
sS'TACYY'
p1990
F0.94
sS'PDFS'
p1991
F0.0
sS'CPIX'
p1992
F0.0
sS'FGROF'
p1993
F1.0
sS'WR'
p1994
F1.0
sS'SFHLF'
p1995
F0.001
sS'ADVS'
p1996
F0.0
sS'CAWLF'
p1997
F0.001
sS'WRTBF'
p1998
F0.33
sS'ULTA'
p1999
F0.999
sS'PZRIF'
p2000
F0.0
sS'BOWFF'
p2001
F1.0
sS'CCLAF'
p2002
F0.022
sS'FOE'
p2003
F0.0
sS'ULTI'
p2004
F0.974
sS'PLSDF'
p2005
F0.0
sS'BRRZY'
p2006
F1.0
sS'MKTY'
p2007
F0.0
sS'MPET'
p2008
F1.0
sS'PIAGF'
p2009
F1.0
sS'SFDPF'
p2010
F0.0
sS'QADA'
p2011
F0.007
sS'CCNMF'
p2012
F0.0
sS'TCLAF'
p2013
F0.0
sS'TBTEF'
p2014
F0.186
sS'CCLAY'
p2015
F0.022
sS'TUPRF'
p2016
F0.999
sS'WINA'
p2017
F1.0
sS'ARUXF'
p2018
F0.0
sS'COP'
p2019
F1.0
sS'COR'
p2020
F1.0
sS'COT'
p2021
F0.03
sS'OCLS'
p2022
F1.0
sS'TWC'
p2023
F1.0
sS'SHMCF'
p2024
F0.0
sS'FSI'
p2025
F0.0
sS'ZARFF'
p2026
F1.0
sS'ANIOF'
p2027
F0.987
sS'FSM'
p2028
F0.0
sS'MOBAF'
p2029
F1.0
sS'PNLYY'
p2030
F1.0
sS'CWRL'
p2031
F1.0
sS'UOLGY'
p2032
F1.0
sS'DAVE'
p2033
F0.142
sS'ANIOY'
p2034
F0.987
sS'FISV'
p2035
F0.0
sS'GWEFF'
p2036
F0.0
sS'COG'
p2037
F1.0
sS'UNIS'
p2038
F1.0
sS'PGNX'
p2039
F0.0
sS'COH'
p2040
F0.856
sS'PEG'
p2041
F1.0
sS'TTFNF'
p2042
F0.942
sS'COL'
p2043
F0.08
sS'COO'
p2044
F0.292
sS'KGSPY'
p2045
F0.001
sS'CWIXF'
p2046
F1.0
sS'FSRV'
p2047
F0.103
sS'PHX'
p2048
F1.0
sS'GOLD'
p2049
F0.103
sS'AMCRY'
p2050
F0.001
sS'CASM'
p2051
F1.0
sS'ISIL'
p2052
F0.0
sS'RMGGF'
p2053
F1.0
sS'ASGN'
p2054
F0.0
sS'UNISZ'
p2055
F1.0
sS'KBRLF'
p2056
F1.0
sS'CLPBF'
p2057
F0.0
sS'AMWD'
p2058
F0.0
sS'OREX'
p2059
F0.0
sS'CASY'
p2060
F1.0
sS'IVCRB'
p2061
F0.0
sS'RICK'
p2062
F1.0
sS'MDVN'
p2063
F0.0
sS'TWI'
p2064
F0.0
sS'SPGYF'
p2065
F1.0
sS'CBYDF'
p2066
F0.0
sS'FDMCF'
p2067
F0.927
sS'AIIFF'
p2068
F0.0
sS'GRRMF'
p2069
F0.989
sS'SYMX'
p2070
F1.0
sS'GARPF'
p2071
F0.975
sS'VMW'
p2072
F0.0
sS'SYT'
p2073
F0.076
sS'GARPY'
p2074
F0.977
sS'SNIRF'
p2075
F0.0
sS'RCDOF'
p2076
F0.197
sS'MTGE'
p2077
F0.0
sS'CAAS'
p2078
F0.0
sS'GROW'
p2079
F1.0
sS'TUPRY'
p2080
F0.999
sS'NYMX'
p2081
F1.0
sS'ARESF'
p2082
F1.0
sS'PLOW'
p2083
F0.0
sS'SAP'
p2084
F0.997
sS'ALIM'
p2085
F1.0
sS'TOL'
p2086
F0.0
sS'FCEL'
p2087
F1.0
sS'NWLTF'
p2088
F1.0
sS'OCLDF'
p2089
F0.999
sS'HLNFF'
p2090
F0.046
sS'SGBX'
p2091
F1.0
sS'RDCM'
p2092
F0.0
sS'GLNCY'
p2093
F0.02
sS'SASOF'
p2094
F1.0
sS'UFS'
p2095
F0.0
sS'TYPE'
p2096
F0.0
sS'AMEH'
p2097
F0.0
sS'DIN'
p2098
F1.0
sS'AIQUF'
p2099
F1.0
sS'MKC'
p2100
F0.484
sS'MMOEF'
p2101
F0.0
sS'AXGN'
p2102
F1.0
sS'AIT'
p2103
F0.0
sS'VRA'
p2104
F0.0
sS'STOHF'
p2105
F1.0
sS'AIQ'
p2106
F0.0
sS'AMED'
p2107
F1.0
sS'VDSI'
p2108
F0.0
sS'AIR'
p2109
F0.0
sS'WDC'
p2110
F0.0
sS'FTTN'
p2111
F1.0
sS'XELB'
p2112
F0.0
sS'AIN'
p2113
F0.012
sS'CUTR'
p2114
F0.0
sS'GNE'
p2115
F0.0
sS'DIT'
p2116
F0.0
sS'JHX'
p2117
F0.0
sS'NMCTF'
p2118
F0.0
sS'PCRTF'
p2119
F1.0
sS'BTFRF'
p2120
F1.0
sS'NSH'
p2121
F0.0
sS'QADB'
p2122
F0.007
sS'WNR'
p2123
F0.034
sS'NHI'
p2124
F1.0
sS'NSPR'
p2125
F1.0
sS'MNST'
p2126
F0.0
sS'WFTBF'
p2127
F0.998
sS'ANCTF'
p2128
F1.0
sS'FHCO'
p2129
F0.0
sS'GDSZF'
p2130
F0.981
sS'PCYG'
p2131
F0.0
sS'CTDH'
p2132
F1.0
sS'ITSI'
p2133
F0.0
sS'NSP'
p2134
F0.0
sS'TLEIY'
p2135
F1.0
sS'NSR'
p2136
F0.0
sS'NSPH'
p2137
F1.0
sS'PMOIY'
p2138
F1.0
sS'HGMCF'
p2139
F0.002
sS'EPGNF'
p2140
F1.0
sS'CBRX'
p2141
F0.0
sS'GBXPY'
p2142
F0.001
sS'CHEOY'
p2143
F0.061
sS'IT'
p2144
F0.008
sS'RSRZY'
p2145
F0.0
sS'WTBCF'
p2146
F1.0
sS'AERT'
p2147
F0.989
sS'CBRL'
p2148
F1.0
sS'DDDC'
p2149
F1.0
sS'CHEOF'
p2150
F0.063
sS'IL'
p2151
F0.999
sS'IO'
p2152
F0.0
sS'SIRZF'
p2153
F0.0
sS'GUANF'
p2154
F0.0
sS'ELNK'
p2155
F0.377
sS'IRC'
p2156
F1.0
sS'BDULF'
p2157
F1.0
sS'MTNOF'
p2158
F1.0
sS'IG'
p2159
F0.0
sS'PANL'
p2160
F0.997
sS'RCKY'
p2161
F0.0
sS'SHTPY'
p2162
F0.0
sS'SATS'
p2163
F0.0
sS'PWR'
p2164
F0.0
sS'KMAAF'
p2165
F0.008
sS'BNSO'
p2166
F1.0
sS'ASYS'
p2167
F0.987
sS'NUTR'
p2168
F0.002
sS'PWX'
p2169
F0.0
sS'SWIR'
p2170
F0.0
sS'MALJF'
p2171
F0.0
sS'DXCM'
p2172
F0.0
sS'NGTEF'
p2173
F0.16
sS'DRDGF'
p2174
F1.0
sS'JJSF'
p2175
F0.0
sS'LCI'
p2176
F0.005
sS'PLSB'
p2177
F1.0
sS'BOX'
p2178
F1.0
sS'PARF'
p2179
F0.0
sS'AGYTF'
p2180
F0.833
sS'NSIT'
p2181
F0.0
sS'HBI'
p2182
F0.0
sS'JAH'
p2183
F0.001
sS'RDLYF'
p2184
F0.006
sS'HBGRY'
p2185
F0.97
sS'TRPWF'
p2186
F1.0
sS'TR'
p2187
F0.0
sS'FTEK'
p2188
F0.0
sS'EGOV'
p2189
F0.0
sS'YITYF'
p2190
F0.898
sS'TIVO'
p2191
F0.0
sS'YITYY'
p2192
F0.896
sS'EPM'
p2193
F0.0
sS'SHLM'
p2194
F0.0
sS'GASNY'
p2195
F0.733
sS'NAT'
p2196
F0.0
sS'DDXS'
p2197
F1.0
sS'HBGRF'
p2198
F0.971
sS'EPD'
p2199
F0.369
sS'BRMSY'
p2200
F0.0
sS'HBP'
p2201
F0.0
sS'OZMLF'
p2202
F0.001
sS'NNEMF'
p2203
F0.0
sS'CENX'
p2204
F0.0
sS'SXC'
p2205
F0.951
sS'VOLVF'
p2206
F0.999
sS'PCYC'
p2207
F0.0
sS'COPJF'
p2208
F1.0
sS'SXI'
p2209
F0.0
sS'CRZO'
p2210
F1.0
sS'GOBK'
p2211
F1.0
sS'SXL'
p2212
F1.0
sS'CENT'
p2213
F0.0
sS'CGNX'
p2214
F0.0
sS'SXT'
p2215
F0.0
sS'SPDL'
p2216
F0.0
sS'UHID'
p2217
F1.0
sS'CTXTY'
p2218
F1.0
sS'BRGXF'
p2219
F1.0
sS'PAYX'
p2220
F0.243
sS'KKD'
p2221
F0.0
sS'VVC'
p2222
F1.0
sS'BWLD'
p2223
F1.0
sS'TSCDF'
p2224
F0.868
sS'RFLFF'
p2225
F1.0
sS'PFSW'
p2226
F0.0
sS'SCVL'
p2227
F1.0
sS'GNGBF'
p2228
F0.035
sS'CMPVF'
p2229
F1.0
sS'FSL'
p2230
F1.0
sS'INTX'
p2231
F0.0
sS'TTNP'
p2232
F1.0
sS'TROLB'
p2233
F0.0
sS'BBEP'
p2234
F1.0
sS'ARCVF'
p2235
F0.999
sS'VZ'
p2236
F1.0
sS'PFSD'
p2237
F0.0
sS'TTAEY'
p2238
F0.962
sS'DSCI'
p2239
F0.0
sS'HOFT'
p2240
F0.0
sS'JVA'
p2241
F0.0
sS'SVU'
p2242
F1.0
sS'GNGBY'
p2243
F0.035
sS'SYENF'
p2244
F0.127
sS'TPIUY'
p2245
F1.0
sS'DGCRF'
p2246
F1.0
sS'GWR'
p2247
F1.0
sS'EDESY'
p2248
F0.003
sS'TXT'
p2249
F0.005
sS'TEVA'
p2250
F0.0
sS'MDSO'
p2251
F0.0
sS'FTGFF'
p2252
F0.0
sS'BDRFF'
p2253
F1.0
sS'BDRFY'
p2254
F1.0
sS'FSS'
p2255
F0.0
sS'GXP'
p2256
F1.0
sS'AMKR'
p2257
F0.978
sS'TDSNA'
p2258
F1.0
sS'TPX'
p2259
F0.44
sS'EDIG'
p2260
F0.0
sS'APP'
p2261
F1.0
sS'PEI'
p2262
F1.0
sS'FLY'
p2263
F1.0
sS'FURCF'
p2264
F0.061
sS'ECIA'
p2265
F0.0
sS'MTRN'
p2266
F0.0
sS'CPHI'
p2267
F0.0
sS'HOG'
p2268
F0.651
sS'CPHD'
p2269
F0.014
sS'EXH'
p2270
F1.0
sS'FLR'
p2271
F0.0
sS'FLT'
p2272
F0.0
sS'CPHC'
p2273
F1.0
sS'OSIR'
p2274
F0.0
sS'DXSPF'
p2275
F0.0
sS'FINL'
p2276
F1.0
sS'FLO'
p2277
F0.321
sS'ELRMF'
p2278
F1.0
sS'AE'
p2279
F0.0
sS'DLR'
p2280
F1.0
sS'APU'
p2281
F0.873
sS'FONR'
p2282
F0.0
sS'EGHSF'
p2283
F0.0
sS'IMROY'
p2284
F1.0
sS'OEZVF'
p2285
F0.992
sS'ATUSF'
p2286
F0.0
sS'TUFRF'
p2287
F0.0
sS'COKEB'
p2288
F1.0
sS'SBMRY'
p2289
F1.0
sS'GETG'
p2290
F0.001
sS'RVUE'
p2291
F1.0
sS'AUVGF'
p2292
F0.0
sS'CKNHF'
p2293
F0.0
sS'PEB'
p2294
F1.0
sS'BFFAF'
p2295
F0.541
sS'EFII'
p2296
F0.0
sS'PCTVY'
p2297
F1.0
sS'RMSYF'
p2298
F1.0
sS'ILIU'
p2299
F1.0
sS'REDF'
p2300
F0.0
sS'EYES'
p2301
F1.0
sS'TSS'
p2302
F0.0
sS'CTTAY'
p2303
F0.002
sS'BGAOY'
p2304
F0.999
sS'TRC'
p2305
F1.0
sS'MLHR'
p2306
F0.0
sS'WWD'
p2307
F0.001
sS'SKUFF'
p2308
F0.126
sS'BGAOF'
p2309
F0.999
sS'TRS'
p2310
F0.0
sS'CTTAF'
p2311
F0.003
sS'SKFRY'
p2312
F0.126
sS'TRW'
p2313
F0.001
sS'PZCUF'
p2314
F0.994
sS'UNT'
p2315
F1.0
sS'ILVOF'
p2316
F1.0
sS'CKSNF'
p2317
F0.004
sS'EQUEY'
p2318
F1.0
sS'RWC'
p2319
F0.0
sS'HHULF'
p2320
F0.899
sS'ANSLY'
p2321
F0.0
sS'ESE'
p2322
F0.34
sS'RTEC'
p2323
F0.0
sS'MITFY'
p2324
F0.0
sS'VLXGF'
p2325
F0.419
sS'ANSLF'
p2326
F0.0
sS'HHULY'
p2327
F0.894
sS'HRTPY'
p2328
F0.0
sS'PZZA'
p2329
F0.092
sS'PLLAF'
p2330
F1.0
sS'TAOIF'
p2331
F1.0
sS'ALTKY'
p2332
F0.0
sS'NGD'
p2333
F0.0
sS'XZJBF'
p2334
F1.0
sS'ISRL'
p2335
F1.0
sS'MMRF'
p2336
F0.0
sS'BAMM'
p2337
F1.0
sS'GRRLF'
p2338
F0.0
sS'TMRAF'
p2339
F0.104
sS'PRBCF'
p2340
F1.0
sS'NXTM'
p2341
F1.0
sS'GRNE'
p2342
F1.0
sS'CEVMF'
p2343
F0.0
sS'FLDM'
p2344
F0.0
sS'ABKI'
p2345
F0.0
sS'EKTAF'
p2346
F0.998
sS'DLEXY'
p2347
F0.0
sS'IRLTY'
p2348
F0.0
sS'CYPUF'
p2349
F0.002
sS'GVP'
p2350
F0.0
sS'WTHEF'
p2351
F0.942
sS'KLAC'
p2352
F0.0
sS'NI'
p2353
F1.0
sS'PIFLF'
p2354
F0.001
sS'NGRJI'
p2355
F0.0
sS'CSQPF'
p2356
F0.019
sS'NM'
p2357
F1.0
sS'AGYS'
p2358
F1.0
sS'DRWI'
p2359
F0.0
sS'CIIX'
p2360
F1.0
sS'MHTLY'
p2361
F0.0
sS'NE'
p2362
F1.0
sS'RFLFY'
p2363
F1.0
sS'ISYRF'
p2364
F0.0
sS'MCRL'
p2365
F0.0
sS'PDPYF'
p2366
F1.0
sS'MCRI'
p2367
F1.0
sS'NP'
p2368
F0.0
sS'DMLP'
p2369
F0.0
sS'NR'
p2370
F0.002
sS'NS'
p2371
F0.997
sS'PIFLY'
p2372
F0.001
sS'FJBHF'
p2373
F0.069
sS'SKUL'
p2374
F0.006
sS'IRAOL'
p2375
F0.947
sS'WIN'
p2376
F0.42
sS'RDY'
p2377
F1.0
sS'CDVIF'
p2378
F0.0
sS'SKLTF'
p2379
F0.994
sS'DRAD'
p2380
F0.0
sS'BCOV'
p2381
F0.097
sS'ELY'
p2382
F0.001
sS'YXOXY'
p2383
F1.0
sS'RDC'
p2384
F1.0
sS'NFYEF'
p2385
F0.0
sS'DRAM'
p2386
F0.001
sS'MGDDY'
p2387
F0.319
sS'ALALF'
p2388
F0.998
sS'RDI'
p2389
F0.994
sS'NTIC'
p2390
F1.0
sS'ICON'
p2391
F0.904
sS'NWSA'
p2392
F0.0
sS'OMVKY'
p2393
F0.073
sS'SPG'
p2394
F0.0
sS'BIDU'
p2395
F0.0
sS'AEBMY'
p2396
F0.646
sS'GRSXY'
p2397
F1.0
sS'CDNAF'
p2398
F1.0
sS'EIFZF'
p2399
F0.043
sS'IPFPY'
p2400
F1.0
sS'MODLY'
p2401
F0.567
sS'IPAR'
p2402
F0.0
sS'IPAS'
p2403
F0.214
sS'NLNK'
p2404
F0.0
sS'TBDYF'
p2405
F0.0
sS'CMTL'
p2406
F0.0
sS'ADWPF'
p2407
F0.073
sS'NPSNY'
p2408
F1.0
sS'FHRT'
p2409
F1.0
sS'HEWA'
p2410
F1.0
sS'AZN'
p2411
F0.0
sS'AZO'
p2412
F1.0
sS'OBJLF'
p2413
F1.0
sS'RMBS'
p2414
F0.0
sS'DTTLF'
p2415
F0.023
sS'HSQVY'
p2416
F0.008
sS'KUMBF'
p2417
F1.0
sS'AZZ'
p2418
F0.0
sS'SEED'
p2419
F1.0
sS'MXIM'
p2420
F0.0
sS'GLUSF'
p2421
F0.0
sS'TITCF'
p2422
F0.0
sS'PCAR'
p2423
F0.0
sS'IMGN'
p2424
F1.0
sS'SGY'
p2425
F1.0
sS'SLFFF'
p2426
F1.0
sS'BSMZF'
p2427
F1.0
sS'SGU'
p2428
F0.0
sS'TTGT'
p2429
F0.0
sS'MPWR'
p2430
F0.0
sS'SGI'
p2431
F0.972
sS'PTXLF'
p2432
F0.001
sS'MCQPF'
p2433
F1.0
sS'MRGE'
p2434
F0.0
sS'SGA'
p2435
F0.0
sS'EXPGY'
p2436
F0.904
sS'SGC'
p2437
F0.0
sS'MALRF'
p2438
F0.0
sS'SYTE'
p2439
F1.0
sS'IRET'
p2440
F1.0
sS'PXD'
p2441
F1.0
sS'CNW'
p2442
F1.0
sS'MSLI'
p2443
F0.0
sS'CNR'
p2444
F1.0
sS'CNS'
p2445
F0.15
sS'CNP'
p2446
F1.0
sS'CNQ'
p2447
F1.0
sS'FPO'
p2448
F1.0
sS'CWST'
p2449
F1.0
sS'NLS'
p2450
F0.0
sS'CNX'
p2451
F1.0
sS'HTWR'
p2452
F0.289
sS'VRTB'
p2453
F1.0
sS'VSH'
p2454
F0.0
sS'CIFHY'
p2455
F1.0
sS'FPP'
p2456
F1.0
sS'EIPAF'
p2457
F0.025
sS'SMEBF'
p2458
F1.0
sS'CNL'
p2459
F0.999
sS'APNHY'
p2460
F1.0
sS'CNK'
p2461
F1.0
sS'AHPI'
p2462
F0.0
sS'AVIVF'
p2463
F0.997
sS'CHHE'
p2464
F0.0
sS'MGDDF'
p2465
F0.4
sS'PFE'
p2466
F0.0
sS'AMTX'
p2467
F1.0
sS'AMTY'
p2468
F0.009
sS'MRTN'
p2469
F1.0
sS'FINMY'
p2470
F0.858
sS'CATM'
p2471
F0.913
sS'CATO'
p2472
F0.0
sS'AXLFF'
p2473
F1.0
sS'CATS'
p2474
F1.0
sS'WESC'
p2475
F1.0
sS'MEGGY'
p2476
F0.096
sS'GIGNY'
p2477
F0.0
sS'BBL'
p2478
F1.0
sS'BTVCF'
p2479
F0.989
sS'PSMT'
p2480
F1.0
sS'PNRA'
p2481
F1.0
sS'FSNUF'
p2482
F0.893
sS'UTX'
p2483
F0.201
sS'KLRGF'
p2484
F0.846
sS'JBHT'
p2485
F1.0
sS'LSTR'
p2486
F0.0
sS'POPE'
p2487
F0.001
sS'LRLCY'
p2488
F0.955
sS'WRI'
p2489
F1.0
sS'SIX'
p2490
F0.202
sS'TBTC'
p2491
F0.0
sS'GUDDY'
p2492
F0.003
sS'TBLMY'
p2493
F0.916
sS'SIG'
p2494
F0.001
sS'MDIEF'
p2495
F1.0
sS'JWN'
p2496
F0.132
sS'LRLCF'
p2497
F0.962
sS'CGYG'
p2498
F0.0
sS'EXAR'
p2499
F0.0
sS'TIGR'
p2500
F1.0
sS'ACET'
p2501
F0.0
sS'TAT'
p2502
F1.0
sS'ONVI'
p2503
F1.0
sS'SSYS'
p2504
F0.0
sS'WAT'
p2505
F0.0
sS'TAP'
p2506
F0.0
sS'VSAT'
p2507
F1.0
sS'RPTP'
p2508
F1.0
sS'ANTUF'
p2509
F0.0
sS'AVAV'
p2510
F0.0
sS'AGLNF'
p2511
F0.985
sS'KMPPF'
p2512
F1.0
sS'MDRX'
p2513
F0.001
sS'AOLS'
p2514
F0.866
sS'ARREF'
p2515
F0.0
sS'SHERF'
p2516
F0.0
sS'NTOIY'
p2517
F0.004
sS'AGLNY'
p2518
F0.985
sS'NHYDY'
p2519
F0.028
sS'TAL'
p2520
F1.0
sS'BREUF'
p2521
F0.358
sS'WYNN'
p2522
F1.0
sS'ESS'
p2523
F1.0
sS'NXGPY'
p2524
F0.0
sS'RJET'
p2525
F1.0
sS'GIS'
p2526
F0.952
sS'IMYSF'
p2527
F1.0
sS'GFKAF'
p2528
F0.0
sS'RTNTF'
p2529
F0.317
sS'RGDEF'
p2530
F0.0
sS'MANZF'
p2531
F0.0
sS'BBRYF'
p2532
F0.994
sS'PCSV'
p2533
F1.0
sS'AWWEF'
p2534
F0.0
sS'FLXS'
p2535
F0.0
sS'SVM'
p2536
F1.0
sS'AMZG'
p2537
F1.0
sS'DDEJF'
p2538
F0.0
sS'ARMHF'
p2539
F0.0
sS'FLXT'
p2540
F1.0
sS'CSII'
p2541
F1.0
sS'AMZN'
p2542
F0.132
sS'GIL'
p2543
F0.73
sS'VOLVY'
p2544
F0.999
sS'KRIDF'
p2545
F0.0
sS'HMDPF'
p2546
F0.0
sS'AHC'
p2547
F1.0
sS'AVLRF'
p2548
F1.0
sS'VTSS'
p2549
F1.0
sS'NPK'
p2550
F0.0
sS'CGEAF'
p2551
F0.983
sS'ANCUF'
p2552
F1.0
sS'CTCT'
p2553
F1.0
sS'PLHNF'
p2554
F0.001
sS'AVNBF'
p2555
F0.0
sS'AHS'
p2556
F0.307
sS'TREVF'
p2557
F1.0
sS'IDXX'
p2558
F0.996
sS'KGILF'
p2559
F1.0
sS'CTCM'
p2560
F1.0
sS'AHT'
p2561
F1.0
sS'HRASF'
p2562
F0.549
sS'WLL'
p2563
F1.0
sS'BTGGF'
p2564
F0.001
sS'XYL'
p2565
F0.0
sS'MENB'
p2566
F0.788
sS'CJREF'
p2567
F0.01
sS'KRYAF'
p2568
F0.244
sS'TSO'
p2569
F0.073
sS'TMED'
p2570
F0.0
sS'MDIUY'
p2571
F1.0
sS'GGNDF'
p2572
F0.001
sS'WBMD'
p2573
F0.0
sS'CNSWF'
p2574
F0.0
sS'EIDXF'
p2575
F0.0
sS'BOXC'
p2576
F1.0
sS'HBM'
p2577
F1.0
sS'BMBYF'
p2578
F0.0
sS'JCOUF'
p2579
F0.0
sS'GRFS'
p2580
F0.0
sS'HVYNF'
p2581
F0.0
sS'IZEA'
p2582
F1.0
sS'TST'
p2583
F0.004
sS'DLYT'
p2584
F1.0
sS'LTRX'
p2585
F0.002
sS'PRKA'
p2586
F1.0
sS'KRYAY'
p2587
F0.244
sS'ITNM'
p2588
F0.999
sS'APOG'
p2589
F0.002
sS'KBH'
p2590
F1.0
sS'BNPUF'
p2591
F1.0
sS'TITN'
p2592
F1.0
sS'BRBMF'
p2593
F1.0
sS'WECFY'
p2594
F0.0
sS'WLBMF'
p2595
F0.0
sS'MNRO'
p2596
F1.0
sS'APOL'
p2597
F0.949
sS'YXOXF'
p2598
F1.0
sS'HMSNF'
p2599
F1.0
sS'VASC'
p2600
F0.0
sS'PLD'
p2601
F1.0
sS'WOR'
p2602
F0.0
sS'BGSWF'
p2603
F0.993
sS'ED'
p2604
F1.0
sS'KBR'
p2605
F0.0
sS'NXPI'
p2606
F0.0
sS'NVO'
p2607
F0.004
sS'BOTRF'
p2608
F1.0
sS'NFG'
p2609
F1.0
sS'HCP'
p2610
F1.0
sS'BABB'
p2611
F0.05
sS'MRNA'
p2612
F1.0
sS'WNYN'
p2613
F1.0
sS'WJXFF'
p2614
F0.0
sS'BLT'
p2615
F0.0
sS'K'
p2616
F0.074
sS'BCRX'
p2617
F1.0
sS'FFIV'
p2618
F0.0
sS'MSTR'
p2619
F0.996
sS'BLL'
p2620
F0.008
sS'HCA'
p2621
F1.0
sS'GCO'
p2622
F1.0
sS'BLK'
p2623
F0.859
sS'RGLXY'
p2624
F0.934
sS'BABY'
p2625
F0.0
sS'FVRG'
p2626
F1.0
sS'OPXS'
p2627
F0.0
sS'GKNLY'
p2628
F0.92
sS'NFX'
p2629
F1.0
sS'AHONY'
p2630
F1.0
sS'SALM'
p2631
F0.0
sS'PTVYF'
p2632
F0.0
sS'CCDBF'
p2633
F0.0
sS'PGEI'
p2634
F1.0
sS'SMKPF'
p2635
F1.0
sS'OTTEF'
p2636
F0.0
sS'PRGS'
p2637
F0.0
sS'RPNMF'
p2638
F0.101
sS'TTOBF'
p2639
F1.0
sS'PMPLY'
p2640
F0.007
sS'SEIC'
p2641
F0.0
sS'LZB'
p2642
F0.0
sS'DXXSF'
p2643
F0.002
sS'PRGX'
p2644
F0.0
sS'REX'
p2645
F0.0
sS'THLEY'
p2646
F0.799
sS'WIMHY'
p2647
F1.0
sS'INSA'
p2648
F0.026
sS'RES'
p2649
F0.983
sS'DRLAF'
p2650
F0.0
sS'BPAQF'
p2651
F0.0
sS'REV'
p2652
F1.0
sS'ABTL'
p2653
F0.0
sS'KTHDY'
p2654
F1.0
sS'MDT'
p2655
F0.0
sS'FNSR'
p2656
F0.001
sS'REN'
p2657
F0.0
sS'RBCL'
p2658
F1.0
sS'IDTI'
p2659
F0.0
sS'RBCN'
p2660
F0.0
sS'RECN'
p2661
F0.0
sS'WIMHF'
p2662
F1.0
sS'POST'
p2663
F0.0
sS'DPBSF'
p2664
F0.0
sS'TGAFF'
p2665
F0.0
sS'FCS'
p2666
F0.0
sS'WJAFF'
p2667
F1.0
sS'CPLFY'
p2668
F0.378
sS'STWS'
p2669
F0.569
sS'FCX'
p2670
F0.999
sS'NPACF'
p2671
F1.0
sS'BGNN'
p2672
F0.0
sS'CIOIF'
p2673
F0.108
sS'CIOIY'
p2674
F0.108
sS'AQUNF'
p2675
F1.0
sS'FCH'
p2676
F1.0
sS'IPSEF'
p2677
F0.816
sS'MXGFF'
p2678
F0.0
sS'FICO'
p2679
F0.005
sS'BAYRY'
p2680
F0.359
sS'ARTNA'
p2681
F1.0
sS'CNCG'
p2682
F1.0
sS'KLPEF'
p2683
F1.0
sS'CTXAF'
p2684
F0.0
sS'EFGSY'
p2685
F1.0
sS'SAFRF'
p2686
F0.995
sS'FMS'
p2687
F0.14
sS'SMCI'
p2688
F0.011
sS'MANH'
p2689
F0.002
sS'SAFRY'
p2690
F0.994
sS'TRZBF'
p2691
F1.0
sS'MRVGF'
p2692
F0.0
sS'CTXAY'
p2693
F0.0
sS'SSY'
p2694
F0.516
sS'FMD'
p2695
F1.0
sS'SPIN'
p2696
F0.0
sS'FKRAF'
p2697
F0.0
sS'GEAGY'
p2698
F0.0
sS'TXMD'
p2699
F1.0
sS'USTR'
p2700
F0.0
sS'ADDDF'
p2701
F0.978
sS'GNC'
p2702
F0.0
sS'SDDFF'
p2703
F1.0
sS'PRSI'
p2704
F1.0
sS'MTAGF'
p2705
F1.0
sS'ST'
p2706
F0.019
sS'UNFI'
p2707
F0.0
sS'SN'
p2708
F1.0
sS'AMID'
p2709
F1.0
sS'SB'
p2710
F1.0
sS'HNDAF'
p2711
F1.0
sS'PNWRF'
p2712
F0.208
sS'ERGZF'
p2713
F0.0
sS'PGLA'
p2714
F1.0
sS'GEAGF'
p2715
F0.0
sS'IBM'
p2716
F0.83
sS'CAR'
p2717
F1.0
sS'MGRUF'
p2718
F1.0
sS'CAP'
p2719
F1.0
sS'CAW'
p2720
F1.0
sS'ABCZF'
p2721
F0.0
sS'CAT'
p2722
F0.0
sS'CAK'
p2723
F1.0
sS'CBMX'
p2724
F1.0
sS'ABCZY'
p2725
F0.0
sS'CAH'
p2726
F0.0
sS'CNPRF'
p2727
F1.0
sS'MGM'
p2728
F1.0
sS'CAM'
p2729
F0.001
sS'EEFT'
p2730
F0.0
sS'CAB'
p2731
F1.0
sS'SRHGF'
p2732
F0.716
sS'IRBT'
p2733
F0.0
sS'CAG'
p2734
F0.001
sS'CAE'
p2735
F0.955
sS'VCISF'
p2736
F1.0
sS'HMRTY'
p2737
F0.542
sS'EMRI'
p2738
F0.0
sS'PGN'
p2739
F0.0
sS'INCY'
p2740
F1.0
sS'ITPOF'
p2741
F0.0
sS'AFLYY'
p2742
F1.0
sS'SWYBY'
p2743
F1.0
sS'AQPTY'
p2744
F0.0
sS'PGI'
p2745
F0.118
sS'BKEP'
p2746
F0.99
sS'VAC'
p2747
F0.0
sS'HIHO'
p2748
F0.0
sS'DIS'
p2749
F0.941
sS'FIX'
p2750
F0.0
sS'GPOR'
p2751
F1.0
sS'FLEX'
p2752
F0.0
sS'AKRX'
p2753
F1.0
sS'SWSSF'
p2754
F0.987
sS'ROIAK'
p2755
F0.038
sS'SPSTF'
p2756
F0.0
sS'SVTRF'
p2757
F1.0
sS'CLNFF'
p2758
F0.0
sS'MMSI'
p2759
F0.009
sS'RAIL'
p2760
F1.0
sS'PFBOF'
p2761
F0.0
sS'KBAGF'
p2762
F0.18
sS'SKAS'
p2763
F0.007
sS'VLO'
p2764
F0.0
sS'UEDVF'
p2765
F1.0
sS'AETUF'
p2766
F1.0
sS'SPSTY'
p2767
F0.0
sS'GNUS'
p2768
F1.0
sS'CACI'
p2769
F0.001
sS'SCG'
p2770
F1.0
sS'CPHVF'
p2771
F0.524
sS'WCN'
p2772
F0.632
sS'TWMC'
p2773
F1.0
sS'ALKS'
p2774
F0.0
sS'HKFI'
p2775
F1.0
sS'RSE'
p2776
F1.0
sS'MDPHF'
p2777
F0.0
sS'RSG'
p2778
F0.995
sS'FNXBY'
p2779
F0.0
sS'BTH'
p2780
F1.0
sS'FLL'
p2781
F1.0
sS'SYZLF'
p2782
F0.0
sS'OGE'
p2783
F1.0
sS'BLKB'
p2784
F0.0
sS'ARLUF'
p2785
F0.0
sS'FIG'
p2786
F1.0
sS'ECPCY'
p2787
F1.0
sS'NSC'
p2788
F1.0
sS'AXIH'
p2789
F0.0
sS'DKS'
p2790
F1.0
sS'AANOF'
p2791
F1.0
sS'TNISY'
p2792
F0.056
sS'PPO'
p2793
F0.0
sS'WSTL'
p2794
F0.0
sS'ONEXF'
p2795
F0.013
sS'WYGPY'
p2796
F0.0
sS'KABHF'
p2797
F0.054
sS'BVNKF'
p2798
F0.0
sS'KBALA'
p2799
F0.0
sS'RYCEY'
p2800
F0.987
sS'REED'
p2801
F0.036
sS'BURBY'
p2802
F0.995
sS'GHM'
p2803
F0.0
sS'TIF'
p2804
F0.699
sS'DLAKF'
p2805
F1.0
sS'BRLI'
p2806
F0.462
sS'SCRA'
p2807
F1.0
sS'PLUG'
p2808
F0.999
sS'LSGOF'
p2809
F1.0
sS'TTWSF'
p2810
F0.0
sS'MLAB'
p2811
F0.0
sS'SXCL'
p2812
F0.0
sS'AON'
p2813
F1.0
sS'AOL'
p2814
F0.0
sS'AOSL'
p2815
F0.0
sS'AOI'
p2816
F0.0
sS'IMO'
p2817
F1.0
sS'AOS'
p2818
F0.0
sS'GWAXY'
p2819
F0.0
sS'RENT'
p2820
F0.0
sS'MEOH'
p2821
F0.999
sS'IPGLF'
p2822
F0.774
sS'RAMPF'
p2823
F0.979
sS'CTBG'
p2824
F0.0
sS'PCRX'
p2825
F0.338
sS'KATY'
p2826
F0.998
sS'SWYBF'
p2827
F1.0
sS'AYI'
p2828
F0.0
sS'BOALF'
p2829
F0.0
sS'WBRBF'
p2830
F0.0
sS'RDEIY'
p2831
F1.0
sS'SHVLF'
p2832
F0.985
sS'AEPI'
p2833
F0.0
sS'URI'
p2834
F1.0
sS'REXX'
p2835
F1.0
sS'TNLX'
p2836
F0.057
sS'WYY'
p2837
F0.0
sS'MAYS'
p2838
F0.993
sS'WBRBY'
p2839
F0.0
sS'BOALY'
p2840
F0.0
sS'KOTRF'
p2841
F0.037
sS'XUE'
p2842
F1.0
sS'URZ'
p2843
F1.0
sS'AYR'
p2844
F1.0
sS'EGHT'
p2845
F0.0
sS'TDC'
p2846
F0.0
sS'WDR'
p2847
F0.0
sS'CYLU'
p2848
F0.005
sS'SFY'
p2849
F1.0
sS'NLSN'
p2850
F0.994
sS'ABSSF'
p2851
F0.0
sS'IPI'
p2852
F0.0
sS'EVC'
p2853
F0.0
sS'NSU'
p2854
F0.0
sS'PRXL'
p2855
F0.0
sS'NLST'
p2856
F0.0
sS'EMRAF'
p2857
F1.0
sS'BPZZF'
p2858
F0.0
sS'TNTFF'
p2859
F1.0
sS'PRXI'
p2860
F1.0
sS'SAVE'
p2861
F1.0
sS'AUSI'
p2862
F1.0
sS'ACTG'
p2863
F0.0
sS'KSU'
p2864
F1.0
sS'ATSG'
p2865
F1.0
sS'GRKZF'
p2866
F0.0
sS'ASAZY'
p2867
F0.609
sS'NGL'
p2868
F0.0
sS'MTNOY'
p2869
F1.0
sS'CKEC'
p2870
F1.0
sS'EROC'
p2871
F0.0
sS'GLAXF'
p2872
F0.514
sS'ISNS'
p2873
F0.0
sS'NEOM'
p2874
F1.0
sS'NGS'
p2875
F1.0
sS'ASAZF'
p2876
F0.679
sS'RNET'
p2877
F0.11
sS'ILADF'
p2878
F0.001
sS'XLS'
p2879
F0.184
sS'SMFOY'
p2880
F1.0
sS'SAJA'
p2881
F0.0
sS'DXYN'
p2882
F0.0
sS'TLSNY'
p2883
F0.322
sS'ECYT'
p2884
F1.0
sS'GBNXF'
p2885
F0.0
sS'NXGPF'
p2886
F0.0
sS'BMI'
p2887
F0.199
sS'ADAT'
p2888
F1.0
sS'WILN'
p2889
F0.0
sS'BMR'
p2890
F1.0
sS'BMS'
p2891
F0.001
sS'MTHVY'
p2892
F0.0
sS'DENN'
p2893
F0.992
sS'ZUMZ'
p2894
F1.0
sS'IIIN'
p2895
F0.0
sS'ALSMY'
p2896
F0.999
sS'WWAG'
p2897
F1.0
sS'BMY'
p2898
F0.007
sS'CEFLF'
p2899
F1.0
sS'TKMGF'
p2900
F1.0
sS'AMFPF'
p2901
F0.646
sS'EL'
p2902
F0.98
sS'SEGSY'
p2903
F0.994
sS'AERO'
p2904
F1.0
sS'BRCPF'
p2905
F0.0
sS'SHW'
p2906
F0.919
sS'EE'
p2907
F1.0
sS'BEKAY'
p2908
F0.002
sS'PMCS'
p2909
F0.0
sS'EA'
p2910
F0.0
sS'POSC'
p2911
F1.0
sS'UTHR'
p2912
F1.0
sS'PLFRY'
p2913
F0.538
sS'RGEDF'
p2914
F0.986
sS'WAVX'
p2915
F1.0
sS'IVDN'
p2916
F1.0
sS'UTL'
p2917
F1.0
sS'ACFN'
p2918
F1.0
sS'EW'
p2919
F0.0
sS'EV'
p2920
F1.0
sS'SEGSF'
p2921
F0.994
sS'ES'
p2922
F1.0
sS'GORO'
p2923
F1.0
sS'IQNT'
p2924
F0.0
sS'GULSF'
p2925
F0.0
sS'SAGKF'
p2926
F1.0
sS'AELTF'
p2927
F1.0
sS'BBGI'
p2928
F0.0
sS'VRDSF'
p2929
F1.0
sS'JKEHY'
p2930
F0.001
sS'TBI'
p2931
F0.0
sS'ALMFF'
p2932
F0.007
sS'URNAF'
p2933
F1.0
sS'FNBRF'
p2934
F0.0
sS'TXRH'
p2935
F1.0
sS'LNT'
p2936
F0.0
sS'IM'
p2937
F0.0
sS'RPCGF'
p2938
F1.0
sS'PDM'
p2939
F1.0
sS'ISIG'
p2940
F0.026
sS'KDSKF'
p2941
F0.016
sS'IRM'
p2942
F1.0
sS'IVWFF'
p2943
F0.0
sS'CMDXF'
p2944
F0.0
sS'NPO'
p2945
F0.842
sS'LUV'
p2946
F1.0
sS'IVDA'
p2947
F1.0
sS'STXS'
p2948
F1.0
sS'SUEZY'
p2949
F0.014
sS'TKMIY'
p2950
F1.0
sS'CORFF'
p2951
F1.0
sS'DNERF'
p2952
F0.999
sS'OTEX'
p2953
F0.0
sS'CLRI'
p2954
F1.0
sS'WGBS'
p2955
F1.0
sS'CLRO'
p2956
F0.0
sS'ADSK'
p2957
F0.0
sS'WPX'
p2958
F1.0
sS'ITYBY'
p2959
F0.0
sS'WPZ'
p2960
F1.0
sS'ABRTY'
p2961
F1.0
sS'WPP'
p2962
F1.0
sS'EFOI'
p2963
F0.002
sS'IPMLF'
p2964
F1.0
sS'GEVO'
p2965
F1.0
sS'QTM'
p2966
F0.0
sS'PCP'
p2967
F0.0
sS'AIMC'
p2968
F0.0
sS'WFREF'
p2969
F1.0
sS'AVNW'
p2970
F0.063
sS'DBHSY'
p2971
F1.0
sS'GTE'
p2972
F1.0
sS'ULGX'
p2973
F0.0
sS'PYHPY'
p2974
F1.0
sS'CHKP'
p2975
F0.0
sS'DMIFF'
p2976
F0.0
sS'ATXMF'
p2977
F0.0
sS'GTN'
p2978
F0.001
sS'GHIFF'
p2979
F0.647
sS'ATML'
p2980
F0.0
sS'PLSKY'
p2981
F0.003
sS'OSTLY'
p2982
F0.003
sS'ARFCF'
p2983
F1.0
sS'GTY'
p2984
F1.0
sS'CODI'
p2985
F0.0
sS'CFRHF'
p2986
F0.0
sS'NMFC'
p2987
F1.0
sS'KEM'
p2988
F0.003
sS'ILISF'
p2989
F0.0
sS'WOPEY'
p2990
F0.0
sS'KEG'
p2991
F0.0
sS'MEI'
p2992
F0.0
sS'NBIAY'
p2993
F0.005
sS'CSCD'
p2994
F0.0
sS'PCH'
p2995
F1.0
sS'SCRPF'
p2996
F1.0
sS'EACO'
p2997
F0.0
sS'FDRVF'
p2998
F1.0
sS'ARNA'
p2999
F1.0
sS'HNRG'
p3000
F0.0
sS'TGI'
p3001
F0.833
sS'BRKS'
p3002
F0.0
sS'KEX'
p3003
F1.0
sS'WILYY'
p3004
F1.0
sS'ETAH'
p3005
F1.0
sS'HVT'
p3006
F1.0
sS'ETAK'
p3007
F1.0
sS'CWCO'
p3008
F0.0
sS'RLCMY'
p3009
F0.0
sS'MOBL'
p3010
F1.0
sS'VSCP'
p3011
F1.0
sS'TSLA'
p3012
F1.0
sS'FNV'
p3013
F0.0
sS'TTI'
p3014
F0.0
sS'THKUY'
p3015
F0.996
sS'GLBXF'
p3016
F0.0
sS'DWSN'
p3017
F0.0
sS'UDIRF'
p3018
F1.0
sS'SINO'
p3019
F0.062
sS'CADC'
p3020
F0.0
sS'WBC'
p3021
F0.0
sS'ZINC'
p3022
F1.0
sS'ITYBF'
p3023
F0.0
sS'NEXJF'
p3024
F1.0
sS'MAPGF'
p3025
F0.0
sS'PUTRF'
p3026
F0.0
sS'AVSIF'
p3027
F0.0
sS'RPT'
p3028
F1.0
sS'TEAR'
p3029
F1.0
sS'ESIO'
p3030
F0.0
sS'RTOXF'
p3031
F0.003
sS'MAORF'
p3032
F0.0
sS'MYGSF'
p3033
F1.0
sS'NPMRF'
p3034
F0.0
sS'NWY'
p3035
F1.0
sS'ARRS'
p3036
F0.0
sS'PEIX'
p3037
F0.0
sS'GTI'
p3038
F0.0
sS'LPAD'
p3039
F0.0
sS'TTAPF'
p3040
F0.0
sS'ORVMF'
p3041
F0.0
sS'ARRY'
p3042
F1.0
sS'HXGCF'
p3043
F0.986
sS'AKAM'
p3044
F0.0
sS'CFPZF'
p3045
F0.088
sS'ZYXI'
p3046
F0.0
sS'HZNOF'
p3047
F1.0
sS'BEAT'
p3048
F0.992
sS'CPOKY'
p3049
F0.965
sS'BEAV'
p3050
F1.0
sS'XOMA'
p3051
F1.0
sS'GPDNF'
p3052
F1.0
sS'HXL'
p3053
F0.901
sS'UACL'
p3054
F0.769
sS'ALXN'
p3055
F0.0
sS'TCYBY'
p3056
F0.0
sS'GGPLF'
p3057
F1.0
sS'ALXA'
p3058
F1.0
sS'ICAD'
p3059
F0.027
sS'RBC'
p3060
F0.0
sS'AEMD'
p3061
F1.0
sS'RBA'
p3062
F0.087
sS'FOJCY'
p3063
F1.0
sS'TCK'
p3064
F0.898
sS'ADDYY'
p3065
F0.977
sS'TESO'
p3066
F0.0
sS'RSMDF'
p3067
F0.0
sS'KEQU'
p3068
F0.0
sS'UVRBF'
p3069
F0.936
sS'WANHF'
p3070
F1.0
sS'BGMD'
p3071
F1.0
sS'AVEVF'
p3072
F0.164
sS'IMMD'
p3073
F0.0
sS'VDNRF'
p3074
F0.959
sS'IPCM'
p3075
F0.0
sS'AMSWA'
p3076
F0.0
sS'NKTR'
p3077
F1.0
sS'VOSSY'
p3078
F0.015
sS'WANHY'
p3079
F1.0
sS'UVRBY'
p3080
F0.985
sS'MNI'
p3081
F0.993
sS'SAVXY'
p3082
F0.0
sS'IMMR'
p3083
F1.0
sS'CAPMF'
p3084
F0.0
sS'KPELF'
p3085
F1.0
sS'FOJCF'
p3086
F1.0
sS'AXR'
p3087
F1.0
sS'FNLIF'
p3088
F1.0
sS'UQM'
p3089
F0.0
sS'SMP'
p3090
F0.006
sS'PCCC'
p3091
F0.0
sS'GSS'
p3092
F1.0
sS'SIGM'
p3093
F0.0
sS'AGEN'
p3094
F1.0
sS'USCR'
p3095
F0.005
sS'BRMLL'
p3096
F0.0
sS'AXE'
p3097
F0.0
sS'DPSI'
p3098
F0.038
sS'JE'
p3099
F0.0
sS'UFLXY'
p3100
F0.467
sS'AXN'
p3101
F1.0
sS'PENN'
p3102
F1.0
sS'AXL'
p3103
F0.006
sS'CPSI'
p3104
F0.0
sS'KCAP'
p3105
F1.0
sS'ENSV'
p3106
F1.0
sS'IRWD'
p3107
F1.0
sS'CMPGY'
p3108
F1.0
sS'VIA'
p3109
F0.927
sS'WHG'
p3110
F0.0
sS'TBLMF'
p3111
F0.916
sS'RRGB'
p3112
F1.0
sS'SWGAY'
p3113
F0.0
sS'TRIP'
p3114
F0.009
sS'SWGAF'
p3115
F0.0
sS'TCYBF'
p3116
F0.0
sS'ENSG'
p3117
F0.0
sS'TLM'
p3118
F0.0
sS'SGBAF'
p3119
F0.0
sS'HTCH'
p3120
F0.055
sS'CMPGF'
p3121
F1.0
sS'ATHOF'
p3122
F1.0
sS'GASNF'
p3123
F0.747
sS'PKTLY'
p3124
F1.0
sS'RNDY'
p3125
F1.0
sS'OFC'
p3126
F1.0
sS'CLNE'
p3127
F1.0
sS'TLCTF'
p3128
F1.0
sS'IFUE'
p3129
F1.0
sS'EXEL'
p3130
F1.0
sS'CHDRY'
p3131
F0.999
sS'FVE'
p3132
F1.0
sS'AWRE'
p3133
F0.0
sS'IFNNF'
p3134
F0.0
sS'IMCI'
p3135
F1.0
sS'AUDVF'
p3136
F0.73
sS'YPF'
p3137
F1.0
sS'CLNT'
p3138
F0.0
sS'PPRUY'
p3139
F1.0
sS'CHDRF'
p3140
F0.999
sS'ELXMF'
p3141
F0.319
sS'NYNY'
p3142
F1.0
sS'SPAN'
p3143
F0.0
sS'GUESF'
p3144
F1.0
sS'CENTA'
p3145
F0.0
sS'VALU'
p3146
F1.0
sS'ELEEF'
p3147
F1.0
sS'DULUF'
p3148
F0.976
sS'CAVM'
p3149
F0.0
sS'RNSHF'
p3150
F0.0
sS'WLB'
p3151
F0.101
sS'ZIXI'
p3152
F0.087
sS'PHG'
p3153
F0.006
sS'SUUIF'
p3154
F0.002
sS'VLGEB'
p3155
F1.0
sS'GSB'
p3156
F0.01
sS'BRCM'
p3157
F0.0
sS'VLRDY'
p3158
F1.0
sS'TKMR'
p3159
F0.0
sS'PLOFY'
p3160
F0.0
sS'CPGLF'
p3161
F0.0
sS'CETEF'
p3162
F0.0
sS'BRCD'
p3163
F0.0
sS'OMIMY'
p3164
F0.0
sS'RTPPF'
p3165
F0.598
sS'UPNRY'
p3166
F0.004
sS'ATASY'
p3167
F0.0
sS'JOBS'
p3168
F0.0
sS'POGLY'
p3169
F1.0
sS'THLD'
p3170
F1.0
sS'CRMZ'
p3171
F0.003
sS'PPMT'
p3172
F0.0
sS'SKX'
p3173
F0.001
sS'OGFGF'
p3174
F0.0
sS'VMC'
p3175
F1.0
sS'ELLKY'
p3176
F0.974
sS'OGFGY'
p3177
F0.0
sS'ABDNF'
p3178
F0.0
sS'FSUGY'
p3179
F0.0
sS'GRSJY'
p3180
F1.0
sS'CTAS'
p3181
F0.0
sS'BNXR'
p3182
F1.0
sS'GNNDY'
p3183
F0.001
sS'BIRNF'
p3184
F0.0
sS'MDAUY'
p3185
F1.0
sS'MGPI'
p3186
F0.0
sS'ATASF'
p3187
F0.0
sS'GES'
p3188
F0.0
sS'PVARF'
p3189
F0.001
sS'ATNAF'
p3190
F1.0
sS'TCX'
p3191
F0.836
sS'IXYS'
p3192
F0.0
sS'GSM'
p3193
F0.0
sS'HGRVF'
p3194
F0.0
sS'TCP'
p3195
F0.0
sS'SHLD'
p3196
F1.0
sS'SNPS'
p3197
F0.0
sS'ASMLF'
p3198
F0.011
sS'BDRAF'
p3199
F1.0
sS'GEF'
p3200
F0.15
sS'RPM'
p3201
F0.258
sS'WGL'
p3202
F1.0
sS'GTIM'
p3203
F1.0
sS'UTI'
p3204
F0.994
sS'GEO'
p3205
F0.756
sS'GEN'
p3206
F0.001
sS'RELL'
p3207
F0.0
sS'GEL'
p3208
F0.996
sS'INPH'
p3209
F0.001
sS'OEZVY'
p3210
F0.991
sS'VLEEY'
p3211
F0.127
sS'MHK'
p3212
F0.926
sS'MHH'
p3213
F0.0
sS'DDS'
p3214
F1.0
sS'DDR'
p3215
F0.998
sS'OLMIF'
p3216
F0.995
sS'SIRI'
p3217
F0.98
sS'CSGS'
p3218
F0.0
sS'KAMN'
p3219
F0.0
sS'CSGP'
p3220
F0.0
sS'PEYE'
p3221
F0.987
sS'AELGF'
p3222
F0.002
sS'OLMIY'
p3223
F0.995
sS'TU'
p3224
F1.0
sS'VLEEF'
p3225
F0.162
sS'KGFHY'
p3226
F1.0
sS'DDE'
p3227
F0.996
sS'DDD'
p3228
F0.0
sS'PAAS'
p3229
F0.0
sS'ANF'
p3230
F1.0
sS'NVS'
p3231
F0.001
sS'NVR'
p3232
F1.0
sS'MGHOF'
p3233
F1.0
sS'MTYFF'
p3234
F0.0
sS'CGECF'
p3235
F0.992
sS'ANN'
p3236
F1.0
sS'KJWNF'
p3237
F0.0
sS'TWIN'
p3238
F0.0
sS'MCHX'
p3239
F0.0
sS'RNWK'
p3240
F1.0
sS'MELI'
p3241
F0.0
sS'ANR'
p3242
F0.001
sS'TDGCF'
p3243
F1.0
sS'MCHP'
p3244
F0.0
sS'TNC'
p3245
F0.0
sS'EUCMF'
p3246
F1.0
sS'TORSF'
p3247
F0.0
sS'SRDLY'
p3248
F0.042
sS'MDFI'
p3249
F1.0
sS'TPNEF'
p3250
F0.0
sS'COIHF'
p3251
F0.298
sS'ATLCF'
p3252
F0.0
sS'CADNF'
p3253
F0.007
sS'REXI'
p3254
F0.0
sS'GEEK'
p3255
F0.003
sS'GWW'
p3256
F0.018
sS'TDCAF'
p3257
F1.0
sS'ATLCY'
p3258
F0.0
sS'COIHY'
p3259
F0.293
sS'TMH'
p3260
F0.0
sS'MRVSY'
p3261
F0.0
sS'WEYS'
p3262
F0.0
sS'EMAN'
p3263
F0.954
sS'DBRM'
p3264
F1.0
sS'DPGYF'
p3265
F1.0
sS'WOSYY'
p3266
F0.017
sS'FRCEF'
p3267
F0.002
sS'PDGNF'
p3268
F1.0
sS'NJR'
p3269
F0.841
sS'BTQNF'
p3270
F0.965
sS'IGXT'
p3271
F1.0
sS'WJAVF'
p3272
F1.0
sS'CYSNF'
p3273
F0.0
sS'UBLXF'
p3274
F0.028
sS'HNSN'
p3275
F1.0
sS'SAWLF'
p3276
F0.0
sS'JHIUF'
p3277
F0.0
sS'HYPMY'
p3278
F0.033
sS'ATRC'
p3279
F1.0
sS'HEP'
p3280
F1.0
sS'VVI'
p3281
F0.0
sS'OERLF'
p3282
F0.343
sS'HES'
p3283
F1.0
sS'ATRI'
p3284
F0.0
sS'PPCYY'
p3285
F1.0
sS'ADGE'
p3286
F1.0
sS'IMASF'
p3287
F1.0
sS'ATRO'
p3288
F0.0
sS'N'
p3289
F0.0
sS'IMASY'
p3290
F1.0
sS'IMIAF'
p3291
F1.0
sS'KRO'
p3292
F0.0
sS'MYMX'
p3293
F0.0
sS'ICPVF'
p3294
F1.0
sS'BCPC'
p3295
F0.0
sS'BALT'
p3296
F1.0
sS'CGEMY'
p3297
F0.0
sS'HEI'
p3298
F0.0
sS'NPTOF'
p3299
F0.229
sS'AVPFF'
p3300
F0.0
sS'PSORF'
p3301
F0.861
sS'DSNY'
p3302
F1.0
sS'PDMDF'
p3303
F1.0
sS'ROP'
p3304
F0.0
sS'ASOZY'
p3305
F0.0
sS'PYDS'
p3306
F0.0
sS'CHLN'
p3307
F1.0
sS'TRAK'
p3308
F0.991
sS'MLNX'
p3309
F0.0
sS'GNTX'
p3310
F0.0
sS'RLGDF'
p3311
F0.055
sS'ASOZF'
p3312
F0.0
sS'PTKHY'
p3313
F0.996
sS'PTTWF'
p3314
F1.0
sS'NPTOY'
p3315
F0.23
sS'PAIOF'
p3316
F1.0
sS'ANLKY'
p3317
F1.0
sS'ARCW'
p3318
F0.001
sS'HERXF'
p3319
F0.0
sS'EIX'
p3320
F1.0
sS'WSM'
p3321
F1.0
sS'WSO'
p3322
F0.0
sS'RCL'
p3323
F1.0
sS'NAVB'
p3324
F1.0
sS'NGLS'
p3325
F0.984
sS'WST'
p3326
F0.001
sS'AAARF'
p3327
F0.0
sS'GBCEY'
p3328
F0.0
sS'PPCMF'
p3329
F1.0
sS'ARCI'
p3330
F0.0
sS'XSPY'
p3331
F1.0
sS'SENEA'
p3332
F0.0
sS'PFBDY'
p3333
F0.0
sS'LEDS'
p3334
F1.0
sS'SVAD'
p3335
F1.0
sS'KGJI'
p3336
F1.0
sS'QMCI'
p3337
F1.0
sS'IMRS'
p3338
F0.975
sS'UHT'
p3339
F0.0
sS'AWAY'
p3340
F0.0
sS'HENVF'
p3341
F0.986
sS'MW'
p3342
F0.97
sS'BNGLF'
p3343
F1.0
sS'MEGEF'
p3344
F1.0
sS'NCMGY'
p3345
F0.0
sS'DTHRF'
p3346
F1.0
sS'ROCK'
p3347
F0.0
sS'OKE'
p3348
F1.0
sS'OWW'
p3349
F1.0
sS'LVGAF'
p3350
F0.0
sS'PDLI'
p3351
F1.0
sS'HD'
p3352
F1.0
sS'THOR'
p3353
F0.0
sS'GOOG'
p3354
F0.0
sS'WECFF'
p3355
F0.0
sS'TG'
p3356
F0.001
sS'DGNOF'
p3357
F1.0
sS'LVS'
p3358
F0.0
sS'TECD'
p3359
F0.0
sS'DEST'
p3360
F1.0
sS'VECO'
p3361
F0.0
sS'FCGYF'
p3362
F0.842
sS'SFLY'
p3363
F0.0
sS'SOIEF'
p3364
F1.0
sS'UEHPY'
p3365
F0.0
sS'GCTAY'
p3366
F0.0
sS'FSCGF'
p3367
F1.0
sS'RGRNF'
p3368
F0.0
sS'ADFJF'
p3369
F1.0
sS'ICPW'
p3370
F0.001
sS'ELRNF'
p3371
F0.0
sS'PSDLF'
p3372
F1.0
sS'UCBJF'
p3373
F0.126
sS'CFRUY'
p3374
F0.0
sS'ZODFY'
p3375
F1.0
sS'PPEVF'
p3376
F0.0
sS'MPAA'
p3377
F0.999
sS'MIDD'
p3378
F0.0
sS'COGZF'
p3379
F0.008
sS'STM'
p3380
F0.0
sS'MDHI'
p3381
F0.0
sS'PCMXF'
p3382
F0.0
sS'ATBEF'
p3383
F0.001
sS'MBXBF'
p3384
F1.0
sS'SNTBL'
p3385
F0.0
sS'HNDGF'
p3386
F0.001
sS'POT'
p3387
F0.431
sS'T'
p3388
F0.993
sS'RLNIY'
p3389
F1.0
sS'GPTGF'
p3390
F0.0
sS'RRD'
p3391
F0.0
sS'MAKSF'
p3392
F1.0
sS'PKG'
p3393
F0.0
sS'ANIK'
p3394
F0.0
sS'ISCB'
p3395
F1.0
sS'TKOI'
p3396
F1.0
sS'CDNTF'
p3397
F1.0
sS'BLIN'
p3398
F1.0
sS'CLMS'
p3399
F0.0
sS'CCO'
p3400
F0.997
sS'ARNGF'
p3401
F1.0
sS'CCI'
p3402
F0.026
sS'CCK'
p3403
F0.006
sS'CCE'
p3404
F0.627
sS'WOPEF'
p3405
F0.0
sS'DARA'
p3406
F1.0
sS'CCF'
p3407
F0.0
sS'SVT'
p3408
F0.0
sS'CCC'
p3409
F0.0
sS'PII'
p3410
F0.978
sS'FRRVF'
p3411
F0.047
sS'ORLY'
p3412
F1.0
sS'TURV'
p3413
F1.0
sS'GKNGY'
p3414
F1.0
sS'INAP'
p3415
F1.0
sS'FLIR'
p3416
F0.0
sS'CYRBY'
p3417
F0.0
sS'EPAX'
p3418
F0.0
sS'POM'
p3419
F1.0
sS'MYL'
p3420
F1.0
sS'EPAY'
p3421
F0.0
sS'PIP'
p3422
F1.0
sS'DMRC'
p3423
F0.0
sS'CHMT'
p3424
F1.0
sS'SIAL'
p3425
F0.0
sS'BKCT'
p3426
F0.0
sS'CHMP'
p3427
F0.74
sS'RTOXY'
p3428
F0.003
sS'SINGF'
p3429
F0.999
sS'TNMRF'
p3430
F0.411
sS'CRMMF'
p3431
F1.0
sS'MRCY'
p3432
F0.0
sS'CABJF'
p3433
F1.0
sS'WMK'
p3434
F0.835
sS'AIXG'
p3435
F0.012
sS'OPK'
p3436
F1.0
sS'GLF'
p3437
F1.0
sS'WMB'
p3438
F1.0
sS'CQP'
p3439
F1.0
sS'TMO'
p3440
F0.004
sS'NXST'
p3441
F0.0
sS'ABHD'
p3442
F1.0
sS'ALEX'
p3443
F1.0
sS'OI'
p3444
F0.538
sS'MGRC'
p3445
F1.0
sS'GLGI'
p3446
F1.0
sS'CDXS'
p3447
F0.0
sS'ABHI'
p3448
F0.0
sS'VIV'
p3449
F1.0
sS'KHOLY'
p3450
F0.149
sS'NTRI'
p3451
F0.988
sS'WAB'
p3452
F0.0
sS'SAUKF'
p3453
F1.0
sS'JCYCF'
p3454
F0.644
sS'PNDZF'
p3455
F0.0
sS'CDXC'
p3456
F0.002
sS'UNIEF'
p3457
F0.0
sS'FE'
p3458
F1.0
sS'MWW'
p3459
F0.0
sS'MWV'
p3460
F0.911
sS'VETTF'
p3461
F1.0
sS'OSTO'
p3462
F0.0
sS'KO'
p3463
F0.302
sS'QUBSF'
p3464
F0.0
sS'XPWR'
p3465
F1.0
sS'IEC'
p3466
F0.0
sS'ATNNF'
p3467
F0.999
sS'INOD'
p3468
F0.0
sS'DEI'
p3469
F1.0
sS'JKLCY'
p3470
F1.0
sS'RDEIF'
p3471
F1.0
sS'DEL'
p3472
F0.998
sS'THTI'
p3473
F0.0
sS'MWE'
p3474
F1.0
sS'DEO'
p3475
F1.0
sS'TALN'
p3476
F0.98
sS'DGLY'
p3477
F1.0
sS'BTLCY'
p3478
F1.0
sS'TAWNY'
p3479
F0.881
sS'FXCM'
p3480
F1.0
sS'VASO'
p3481
F0.227
sS'CVLT'
p3482
F0.0
sS'SKSBF'
p3483
F0.001
sS'RTRBY'
p3484
F1.0
sS'NWS'
p3485
F0.0
sS'MEOBF'
p3486
F1.0
sS'FBGBY'
p3487
F1.0
sS'PCTI'
p3488
F0.0
sS'BHPBF'
p3489
F1.0
sS'AME'
p3490
F0.0
sS'AMD'
p3491
F0.322
sS'AMG'
p3492
F0.0
sS'DOW'
p3493
F0.001
sS'WNGRF'
p3494
F0.992
sS'NWE'
p3495
F1.0
sS'LOPE'
p3496
F1.0
sS'DIIBF'
p3497
F0.0
sS'MSFT'
p3498
F0.0
sS'FBGBF'
p3499
F1.0
sS'RCKXF'
p3500
F1.0
sS'CHLDF'
p3501
F0.001
sS'AMS'
p3502
F0.0
sS'CXLIF'
p3503
F1.0
sS'AMT'
p3504
F1.0
sS'LRCX'
p3505
F0.0
sS'DRXGF'
p3506
F1.0
sS'UPL'
p3507
F1.0
sS'SUBCY'
p3508
F0.0
sS'FHNIY'
p3509
F1.0
sS'IGNMF'
p3510
F1.0
sS'TUIFY'
p3511
F0.256
sS'O'
p3512
F1.0
sS'HKHHF'
p3513
F0.998
sS'TMOAY'
p3514
F0.951
sS'MVIS'
p3515
F1.0
sS'SNHY'
p3516
F0.0
sS'UPS'
p3517
F1.0
sS'AFIMF'
p3518
F0.0
sS'DRXGY'
p3519
F1.0
sS'FNERF'
p3520
F0.0
sS'AHGP'
p3521
F0.029
sS'IVC'
p3522
F0.0
sS'PEGFF'
p3523
F0.999
sS'IGFUF'
p3524
F0.005
sS'ANGO'
p3525
F0.007
sS'SULZF'
p3526
F0.0
sS'ANGI'
p3527
F1.0
sS'ISLE'
p3528
F1.0
sS'CYNO'
p3529
F0.0
sS'BSET'
p3530
F0.67
sS'PETFF'
p3531
F0.0
sS'NATR'
p3532
F1.0
sS'AVIKF'
p3533
F0.997
sS'CDLRF'
p3534
F0.999
sS'PRAN'
p3535
F1.0
sS'ENRJ'
p3536
F1.0
sS'IVZ'
p3537
F1.0
sS'FNERY'
p3538
F0.0
sS'DANOY'
p3539
F1.0
sS'SHNVF'
p3540
F0.0
sS'AXFOY'
p3541
F0.245
sS'EDMC'
p3542
F0.0
sS'KOPN'
p3543
F0.0
sS'EMNSF'
p3544
F0.004
sS'RGEN'
p3545
F0.0
sS'ACI'
p3546
F0.002
sS'DTNOY'
p3547
F0.0
sS'KALU'
p3548
F0.001
sS'ACN'
p3549
F0.0
sS'ACM'
p3550
F0.0
sS'HURC'
p3551
F0.0
sS'MCFUF'
p3552
F0.009
sS'OMTK'
p3553
F1.0
sS'ACW'
p3554
F0.099
sS'IFCNF'
p3555
F0.0
sS'ACU'
p3556
F0.0
sS'ERMS'
p3557
F0.0
sS'ACY'
p3558
F1.0
sS'NEU'
p3559
F0.0
sS'AXFOF'
p3560
F0.388
sS'NEP'
p3561
F1.0
sS'BKD'
p3562
F1.0
sS'BKE'
p3563
F1.0
sS'NXPGY'
p3564
F1.0
sS'FDML'
p3565
F0.149
sS'CMGMF'
p3566
F0.0
sS'BSHF'
p3567
F1.0
sS'SECCF'
p3568
F0.0
sS'BKH'
p3569
F1.0
sS'NATI'
p3570
F0.0
sS'ADYBY'
p3571
F1.0
sS'DRGN'
p3572
F0.0
sS'PKE'
p3573
F0.0
sS'POWI'
p3574
F0.0
sS'LSCC'
p3575
F0.0
sS'BKS'
p3576
F1.0
sS'QBAK'
p3577
F1.0
sS'CYRX'
p3578
F1.0
sS'NXPGF'
p3579
F1.0
sS'FLS'
p3580
F0.004
sS'GLMFF'
p3581
F0.0
sS'GSIT'
p3582
F0.0
sS'GLUU'
p3583
F0.0
sS'SANW'
p3584
F1.0
sS'POWL'
p3585
F0.001
sS'NHC'
p3586
F0.004
sS'GILD'
p3587
F0.0
sS'ESSX'
p3588
F1.0
sS'CNPLF'
p3589
F0.004
sS'DGAS'
p3590
F0.003
sS'AIAGF'
p3591
F0.0
sS'RYDAF'
p3592
F0.023
sS'AIAGY'
p3593
F0.0
sS'ZGNX'
p3594
F1.0
sS'MEMP'
p3595
F1.0
sS'EVTZF'
p3596
F0.0
sS'MSEX'
p3597
F1.0
sS'GILT'
p3598
F1.0
sS'QUAD'
p3599
F0.0
sS'XPPLF'
p3600
F0.0
sS'SGQRF'
p3601
F0.0
sS'GPEAF'
p3602
F1.0
sS'ACHC'
p3603
F1.0
sS'GDP'
p3604
F1.0
sS'MED'
p3605
F1.0
sS'MEG'
p3606
F1.0
sS'FFXLF'
p3607
F0.999
sS'LGL'
p3608
F0.0
sS'NCFT'
p3609
F0.0
sS'EPIQ'
p3610
F0.0
sS'BOOT'
p3611
F1.0
sS'UPNRF'
p3612
F0.004
sS'EBAY'
p3613
F0.0
sS'NAUH'
p3614
F1.0
sS'NSYS'
p3615
F0.0
sS'BOOM'
p3616
F0.0
sS'DTLK'
p3617
F0.86
sS'WYGPF'
p3618
F0.0
sS'BDRBF'
p3619
F1.0
sS'CPAMF'
p3620
F1.0
sS'ININ'
p3621
F1.0
sS'AIPUF'
p3622
F0.096
sS'AMOT'
p3623
F0.0
sS'CPLP'
p3624
F0.0
sS'RGSJY'
p3625
F0.934
sS'IPCI'
p3626
F0.006
sS'HRZL'
p3627
F0.007
sS'EVSI'
p3628
F1.0
sS'AGTAF'
p3629
F1.0
sS'VTXPF'
p3630
F0.992
sS'SPNS'
p3631
F0.0
sS'NC'
p3632
F0.0
sS'IRPSY'
p3633
F0.963
sS'WPRT'
p3634
F1.0
sS'CPLA'
p3635
F0.0
sS'REG'
p3636
F1.0
sS'RDSMY'
p3637
F0.014
sS'OCQLF'
p3638
F1.0
sS'PDCO'
p3639
F0.0
sS'SPNC'
p3640
F0.141
sS'KGSPF'
p3641
F0.001
sS'ERGTF'
p3642
F0.0
sS'PHMZF'
p3643
F1.0
sS'RGSJF'
p3644
F0.929
sS'AFAN'
p3645
F0.0
sS'TXN'
p3646
F0.0
sS'AFAM'
p3647
F0.177
sS'CUKPF'
p3648
F1.0
sS'NMRX'
p3649
F0.0
sS'NUTCF'
p3650
F0.001
sS'BMBLF'
p3651
F1.0
sS'GRCNL'
p3652
F0.994
sS'TXHG'
p3653
F1.0
sS'CTAGF'
p3654
F0.058
sS'BMBLY'
p3655
F1.0
sS'QSII'
p3656
F0.0
sS'ESLOY'
p3657
F0.921
sS'SPASF'
p3658
F0.003
sS'DWCH'
p3659
F0.0
sS'TE'
p3660
F1.0
sS'BTBIF'
p3661
F0.0
sS'TC'
p3662
F0.0
sS'TA'
p3663
F1.0
sS'AA'
p3664
F0.076
sS'DSDVY'
p3665
F0.013
sS'BDCO'
p3666
F0.0
sS'BCNAF'
p3667
F0.005
sS'AG'
p3668
F0.0
sS'KING'
p3669
F0.0
sS'USGPF'
p3670
F0.011
sS'SVCTF'
p3671
F1.0
sS'GVA'
p3672
F0.0
sS'AM'
p3673
F1.0
sS'LLY'
p3674
F0.858
sS'EPSEF'
p3675
F0.0
sS'AN'
p3676
F1.0
sS'NCTY'
p3677
F1.0
sS'AP'
p3678
F0.0
sS'AU'
p3679
F0.967
sS'AT'
p3680
F0.005
sS'DPMLF'
p3681
F1.0
sS'KDCXF'
p3682
F0.066
sS'TSRA'
p3683
F0.0
sS'ROL'
p3684
F0.526
sS'BCNAY'
p3685
F0.004
sS'EDEYF'
p3686
F1.0
sS'ISRG'
p3687
F0.0
sS'GECFF'
p3688
F1.0
sS'HHS'
p3689
F1.0
sS'NKA'
p3690
F0.023
sS'UBNT'
p3691
F0.0
sS'CLLDF'
p3692
F0.039
sS'NKE'
p3693
F0.0
sS'OUKPF'
p3694
F0.191
sS'ARLP'
p3695
F0.008
sS'JRONF'
p3696
F1.0
sS'ROLL'
p3697
F0.0
sS'HHC'
p3698
F1.0
sS'JRONY'
p3699
F1.0
sS'KGC'
p3700
F0.002
sS'RRMS'
p3701
F0.0
sS'KCOMY'
p3702
F1.0
sS'OUKPY'
p3703
F0.191
sS'VPTOF'
p3704
F1.0
sS'CLLDY'
p3705
F0.039
sS'OPST'
p3706
F0.0
sS'FRHLF'
p3707
F1.0
sS'CPK'
p3708
F1.0
sS'UCBJY'
p3709
F0.121
sS'CPN'
p3710
F1.0
sS'GMWKF'
p3711
F0.969
sS'CPB'
p3712
F1.0
sS'WLT'
p3713
F0.249
sS'CPE'
p3714
F1.0
sS'SARTF'
p3715
F0.0
sS'CBPO'
p3716
F0.077
sS'GNVC'
p3717
F0.999
sS'AXELF'
p3718
F0.975
sS'AFOP'
p3719
F0.0
sS'ZQK'
p3720
F0.0
sS'SBAC'
p3721
F0.0
sS'FALC'
p3722
F0.963
sS'SOHMF'
p3723
F1.0
sS'ROG'
p3724
F0.0
sS'TNHPF'
p3725
F0.999
sS'NX'
p3726
F0.0
sS'HEES'
p3727
F1.0
sS'TUWLF'
p3728
F0.0
sS'MANT'
p3729
F0.0
sS'PHTCF'
p3730
F1.0
sS'SBMRF'
p3731
F1.0
sS'VYCO'
p3732
F1.0
sS'VLRDF'
p3733
F1.0
sS'AGGZF'
p3734
F0.999
sS'NILE'
p3735
F1.0
sS'THAFF'
p3736
F1.0
sS'TODGF'
p3737
F0.968
sS'UAL'
p3738
F1.0
sS'UAN'
p3739
F0.0
sS'IWSY'
p3740
F1.0
sS'REFR'
p3741
F0.0
sS'GGFHF'
p3742
F1.0
sS'BRKNF'
p3743
F0.0
sS'WRE'
p3744
F1.0
sS'DDAIF'
p3745
F1.0
sS'GPPDF'
p3746
F0.0
sS'KTEC'
p3747
F0.0
sS'HZO'
p3748
F1.0
sS'NOBH'
p3749
F0.0
sS'APRI'
p3750
F1.0
sS'SRCO'
p3751
F1.0
sS'RJCTF'
p3752
F1.0
sS'P'
p3753
F0.0
sS'HLUKF'
p3754
F0.999
sS'BECN'
p3755
F0.0
sS'SRCL'
p3756
F0.118
sS'DORM'
p3757
F0.0
sS'PPHM'
p3758
F1.0
sS'DDAIY'
p3759
F1.0
sS'HENKY'
p3760
F0.628
sS'COCAL'
p3761
F1.0
sS'WLFDY'
p3762
F1.0
sS'ICCC'
p3763
F0.998
sS'CVCO'
p3764
F0.0
sS'VVVFF'
p3765
F0.189
sS'SNLGF'
p3766
F1.0
sS'WEGZY'
p3767
F0.0
sS'IMSC'
p3768
F1.0
sS'ALG'
p3769
F0.0
sS'GRKGF'
p3770
F1.0
sS'WLFDF'
p3771
F1.0
sS'VNR'
p3772
F1.0
sS'KGFHF'
p3773
F1.0
sS'SWRL'
p3774
F1.0
sS'TRI'
p3775
F0.777
sS'PLPC'
p3776
F0.0
sS'BLWYF'
p3777
F1.0
sS'OXINF'
p3778
F0.942
sS'CAGDF'
p3779
F0.0
sS'ABGOF'
p3780
F1.0
sS'MLXSF'
p3781
F0.0
sS'AMADF'
p3782
F0.975
sS'TRK'
p3783
F0.0
sS'DTE'
p3784
F1.0
sS'BALOF'
p3785
F0.0
sS'WMGI'
p3786
F1.0
sS'RLGT'
p3787
F0.0
sS'AMADY'
p3788
F0.975
sS'SLVFF'
p3789
F0.0
sS'ABGOY'
p3790
F1.0
sS'WRES'
p3791
F1.0
sS'SEAC'
p3792
F0.0
sS'PMXSF'
p3793
F0.003
sS'BLWYY'
p3794
F1.0
sS'NOBGY'
p3795
F0.002
sS'DTV'
p3796
F0.997
sS'DRYS'
p3797
F1.0
sS'AAWW'
p3798
F1.0
sS'PUPKF'
p3799
F0.99
sS'ANFC'
p3800
F1.0
sS'WOLTF'
p3801
F0.887
sS'EOLGF'
p3802
F1.0
sS'TRN'
p3803
F0.907
sS'CYOU'
p3804
F0.02
sS'NTK'
p3805
F0.393
sS'DVAX'
p3806
F1.0
sS'USAP'
p3807
F0.0
sS'JMBA'
p3808
F0.997
sS'EGRAF'
p3809
F0.0
sS'MTOR'
p3810
F0.005
sS'PSPSY'
p3811
F1.0
sS'EFLVF'
p3812
F1.0
sS'VRML'
p3813
F1.0
sS'RNMBY'
p3814
F1.0
sS'FTR'
p3815
F1.0
sS'MXWL'
p3816
F0.973
sS'SUMXF'
p3817
F0.0
sS'GVMUF'
p3818
F0.0
sS'WNC'
p3819
F0.0
sS'UUGRY'
p3820
F1.0
sS'ELSE'
p3821
F0.0
sS'ALV'
p3822
F0.0
sS'JECFF'
p3823
F1.0
sS'IGC'
p3824
F0.972
sS'IMAX'
p3825
F0.009
sS'SGRCF'
p3826
F0.0
sS'FTI'
p3827
F0.012
sS'UTMD'
p3828
F0.0
sS'FTK'
p3829
F0.023
sS'MCNSF'
p3830
F0.0
sS'SBH'
p3831
F1.0
sS'ELST'
p3832
F0.0
sS'BLFS'
p3833
F1.0
sS'CBB'
p3834
F1.0
sS'GFPMF'
p3835
F1.0
sS'ALU'
p3836
F0.998
sS'CBG'
p3837
F0.202
sS'ACGYF'
p3838
F0.0
sS'CBK'
p3839
F1.0
sS'CBI'
p3840
F0.867
sS'CBL'
p3841
F1.0
sS'CBM'
p3842
F0.0
sS'CBR'
p3843
F0.0
sS'CBS'
p3844
F1.0
sS'PUTRY'
p3845
F0.002
sS'NVSEF'
p3846
F0.001
sS'QUIK'
p3847
F0.0
sS'CBT'
p3848
F0.0
sS'CBZ'
p3849
F0.0
sS'TAC'
p3850
F1.0
sS'SEPGY'
p3851
F0.001
sS'IMIAY'
p3852
F1.0
sS'MXC'
p3853
F1.0
sS'NUAN'
p3854
F0.0
sS'RIDYF'
p3855
F0.0
sS'RGS'
p3856
F1.0
sS'USAK'
p3857
F0.99
sS'FR'
p3858
F1.0
sS'VOLAF'
p3859
F0.999
sS'PBI'
p3860
F0.981
sS'NVTZF'
p3861
F0.844
sS'CROX'
p3862
F0.048
sS'BDUUF'
p3863
F1.0
sS'ACIW'
p3864
F0.357
sS'CDNS'
p3865
F0.05
sS'BDR'
p3866
F0.0
sS'HAIN'
p3867
F0.0
sS'DGPIF'
p3868
F0.003
sS'FSNN'
p3869
F0.999
sS'SMAWF'
p3870
F0.003
sS'ENGY'
p3871
F1.0
sS'TTMI'
p3872
F0.0
sS'FC'
p3873
F0.997
sS'BZC'
p3874
F0.063
sS'AUDC'
p3875
F0.104
sS'FF'
p3876
F0.0
sS'SMG'
p3877
F0.19
sS'CYAN'
p3878
F0.711
sS'FL'
p3879
F1.0
sS'FN'
p3880
F0.0
sS'BZH'
p3881
F0.24
sS'LTOUF'
p3882
F1.0
sS'GGP'
p3883
F1.0
sS'NVZMF'
p3884
F0.0
sS'XJNGF'
p3885
F1.0
sS'MDC'
p3886
F0.999
sS'GLPW'
p3887
F0.0
sS'ISH'
p3888
F1.0
sS'SERTY'
p3889
F0.009
sS'BONT'
p3890
F1.0
sS'WWW'
p3891
F0.0
sS'GGG'
p3892
F0.0
sS'NATH'
p3893
F0.062
sS'SQI'
p3894
F0.0
sS'ASPS'
p3895
F0.0
sS'MDR'
p3896
F1.0
sS'RPXC'
p3897
F0.0
sS'MDP'
p3898
F0.932
sS'TJX'
p3899
F1.0
sS'NGHT'
p3900
F1.0
sS'BONE'
p3901
F1.0
sS'MDU'
p3902
F1.0
sS'INNV'
p3903
F0.0
sS'ZMH'
p3904
F0.0
sS'TRT'
p3905
F0.0
sS'NONOF'
p3906
F0.004
sS'THO'
p3907
F0.0
sS'DFT'
p3908
F1.0
sS'ANRGF'
p3909
F0.001
sS'MNILF'
p3910
F1.0
sS'ITCC'
p3911
F0.0
sS'JEC'
p3912
F0.0
sS'ILMN'
p3913
F0.003
sS'HUGPF'
p3914
F0.929
sS'ESLOF'
p3915
F0.927
sS'LPRRF'
p3916
F0.001
sS'ARVCY'
p3917
F0.0
sS'OESX'
p3918
F0.0
sS'MXTOF'
p3919
F0.002
sS'CEYFF'
p3920
F1.0
sS'ALJ'
p3921
F0.985
sS'ALK'
p3922
F1.0
sS'SUTR'
p3923
F1.0
sS'PNDZY'
p3924
F0.0
sS'SAABF'
p3925
F1.0
sS'AHODF'
p3926
F1.0
sS'ALE'
p3927
F1.0
sS'ALB'
p3928
F0.0
sS'UEPS'
p3929
F1.0
sS'MARK'
p3930
F0.0
sS'SUWN'
p3931
F0.0
sS'GTVI'
p3932
F0.0
sS'UOLGF'
p3933
F1.0
sS'USAT'
p3934
F1.0
sS'JNPR'
p3935
F0.0
sS'NTN'
p3936
F1.0
sS'ASCMA'
p3937
F1.0
sS'ASCMB'
p3938
F1.0
sS'ALR'
p3939
F0.0
sS'HTM'
p3940
F0.0
sS'TOO'
p3941
F1.0
sS'MBDE'
p3942
F1.0
sS'HLMLY'
p3943
F0.0
sS'CRWRF'
p3944
F0.936
sS'ADBE'
p3945
F0.0
sS'DMTGF'
p3946
F1.0
sS'HUSKF'
p3947
F1.0
sS'ZEUS'
p3948
F0.0
sS'CXSNF'
p3949
F0.364
sS'TOT'
p3950
F0.942
sS'GETVF'
p3951
F1.0
sS'BYOGF'
p3952
F0.0
sS'BBLU'
p3953
F1.0
sS'MITL'
p3954
F0.0
sS'MITK'
p3955
F0.0
sS'CKGDF'
p3956
F0.0
sS'KOP'
p3957
F0.299
sS'CSFFF'
p3958
F0.0
sS'PGSI'
p3959
F0.0
sS'CRWRY'
p3960
F0.937
sS'HBIO'
p3961
F0.0
sS'CMXHF'
p3962
F0.0
sS'BLSFF'
p3963
F0.003
sS'BVSN'
p3964
F1.0
sS'EMSHF'
p3965
F0.0
sS'HIW'
p3966
F1.0
sS'BELFB'
p3967
F0.0
sS'ATNI'
p3968
F0.992
sS'RRTS'
p3969
F0.066
sS'GIKLY'
p3970
F0.0
sS'ERJ'
p3971
F0.998
sS'FRAN'
p3972
F1.0
sS'HII'
p3973
F0.0
sS'WIZD'
p3974
F1.0
sS'BELFA'
p3975
F0.0
sS'ATNY'
p3976
F0.0
sS'IAG'
p3977
F0.015
sS'TCYSF'
p3978
F0.0
sS'BLSFY'
p3979
F0.004
sS'MNHFY'
p3980
F0.0
sS'ABB'
p3981
F0.001
sS'ABC'
p3982
F0.0
sS'FTNT'
p3983
F0.0
sS'AJLGF'
p3984
F0.005
sS'ABG'
p3985
F1.0
sS'SLGD'
p3986
F0.0
sS'PLHTF'
p3987
F0.389
sS'HUPWY'
p3988
F0.998
sS'PCYO'
p3989
F1.0
sS'BBVKF'
p3990
F0.0
sS'ABM'
p3991
F0.0
sS'AFIVY'
p3992
F0.0
sS'UGLLF'
p3993
F0.94
sS'ABT'
p3994
F0.001
sS'CVPUF'
p3995
F1.0
sS'CMLS'
p3996
F0.0
sS'ABX'
p3997
F1.0
sS'HGG'
p3998
F0.996
sS'REPYY'
p3999
F0.0
sS'XOM'
p4000
F1.0
sS'OCLDY'
p4001
F0.999
sS'IDSY'
p4002
F0.0
sS'BHI'
p4003
F0.0
sS'WES'
p4004
F1.0
sS'CUUHF'
p4005
F0.0
sS'SSP'
p4006
F0.0
sS'TKC'
p4007
F1.0
sS'ISSC'
p4008
F0.0
sS'MLBEF'
p4009
F0.004
sS'BHE'
p4010
F0.0
sS'CRAY'
p4011
F1.0
sS'SJLUF'
p4012
F0.0
sS'IFNNY'
p4013
F0.0
sS'BHP'
p4014
F1.0
sS'PRCP'
p4015
F0.0
sS'CRAI'
p4016
F0.0
sS'PSDV'
p4017
F1.0
sS'RBGPF'
p4018
F0.015
sS'IGTE'
p4019
F1.0
sS'EGY'
p4020
F1.0
sS'CRDAF'
p4021
F1.0
sS'ISSI'
p4022
F0.004
sS'ARAY'
p4023
F0.073
sS'TATYY'
p4024
F0.021
sS'EGT'
p4025
F0.0
sS'RDNT'
p4026
F0.381
sS'GTDNF'
p4027
F0.999
sS'TATYF'
p4028
F0.02
sS'EGO'
p4029
F1.0
sS'EGN'
p4030
F1.0
sS'X'
p4031
F0.0
sS'AGMJF'
p4032
F0.0
sS'MAUXF'
p4033
F1.0
sS'KFY'
p4034
F0.455
sS'ARAO'
p4035
F1.0
sS'OMHLF'
p4036
F1.0
sS'BEBE'
p4037
F1.0
sS'SISXF'
p4038
F0.0
sS'HNTIF'
p4039
F0.0
sS'RLJ'
p4040
F1.0
sS'CNYD'
p4041
F1.0
sS'EXTR'
p4042
F1.0
sS'DBOXF'
p4043
F0.0
sS'RFLXF'
p4044
F0.001
sS'IMMNF'
p4045
F0.0
sS'CVONF'
p4046
F0.0
sS'FGP'
p4047
F0.994
sS'RAI'
p4048
F1.0
sS'HFAHF'
p4049
F0.0
sS'BAFBF'
p4050
F0.872
sS'BGOMF'
p4051
F0.0
sS'VRX'
p4052
F0.003
sS'HNTIY'
p4053
F0.0
sS'RAX'
p4054
F0.99
sS'SPSC'
p4055
F0.0
sS'SCUPF'
p4056
F1.0
sS'PYNEF'
p4057
F1.0
sS'SHEN'
p4058
F0.027
sS'RFLXY'
p4059
F0.001
sS'WEICF'
p4060
F0.0
sS'PHI'
p4061
F1.0
sS'UFPT'
p4062
F0.0
sS'BFS'
p4063
F1.0
sS'ADBCF'
p4064
F0.0
sS'EPUMY'
p4065
F1.0
sS'RMCF'
p4066
F1.0
sS'BKKCF'
p4067
F1.0
sS'CGAAY'
p4068
F0.073
sS'TORM'
p4069
F0.0
sS'GDFLY'
p4070
F0.0
sS'TYL'
p4071
F0.0
sS'SBGSF'
p4072
F0.332
sS'MDCA'
p4073
F0.039
sS'NDCVF'
p4074
F0.0
sS'PWSEF'
p4075
F0.0
sS'VWDRY'
p4076
F0.0
sS'BWEN'
p4077
F0.0
sS'HIL'
p4078
F0.233
sS'VII'
p4079
F0.0
sS'JSDA'
p4080
F0.0
sS'TYC'
p4081
F0.018
sS'VIP'
p4082
F1.0
sS'JUHL'
p4083
F0.0
sS'SBDXF'
p4084
F0.0
sS'SEOFF'
p4085
F0.792
sS'GURE'
p4086
F0.0
sS'ROST'
p4087
F1.0
sS'IPDQF'
p4088
F1.0
sS'INBP'
p4089
F0.089
sS'EXFO'
p4090
F0.0
sS'VIDE'
p4091
F0.0
sS'RDMP'
p4092
F0.0
sS'JDGRY'
p4093
F0.014
sS'TWODF'
p4094
F0.363
sS'BUHPF'
p4095
F0.0
sS'DVDCY'
p4096
F0.0
sS'CDEVY'
p4097
F1.0
sS'SLGN'
p4098
F0.001
sS'ARZTF'
p4099
F0.379
sS'FOUR'
p4100
F1.0
sS'AKKVY'
p4101
F1.0
sS'IFF'
p4102
F0.0
sS'CDEVF'
p4103
F1.0
sS'DVDCF'
p4104
F0.0
sS'NVDA'
p4105
F0.0
sS'ELRC'
p4106
F1.0
sS'STAA'
p4107
F1.0
sS'FUN'
p4108
F1.0
sS'FUL'
p4109
F0.945
sS'OCR'
p4110
F0.0
sS'REPYF'
p4111
F0.0
sS'SRMC'
p4112
F0.0
sS'CHSP'
p4113
F1.0
sS'PKT'
p4114
F0.0
sS'VYEY'
p4115
F1.0
sS'SJR'
p4116
F1.0
sS'CEL'
p4117
F0.0
sS'ASBFY'
p4118
F0.003
sS'SYUT'
p4119
F1.0
sS'ITMSF'
p4120
F0.0
sS'IIVI'
p4121
F0.0
sS'CXEYF'
p4122
F0.841
sS'ASBFF'
p4123
F0.003
sS'HILL'
p4124
F0.003
sS'PKD'
p4125
F0.001
sS'CCUR'
p4126
F0.0
sS'GAILF'
p4127
F1.0
sS'PKI'
p4128
F0.0
sS'PCYN'
p4129
F0.001
sS'NEN'
p4130
F1.0
sS'ASML'
p4131
F0.011
sS'SYMC'
p4132
F0.933
sS'CSL'
p4133
F0.0
sS'TVFCF'
p4134
F0.314
sS'CCHBF'
p4135
F0.278
sS'CSH'
p4136
F0.0
sS'NEON'
p4137
F1.0
sS'CAGU'
p4138
F0.908
sS'CSC'
p4139
F0.0
sS'NRP'
p4140
F1.0
sS'AIVN'
p4141
F0.0
sS'SUMR'
p4142
F0.113
sS'CSX'
p4143
F1.0
sS'OLGRF'
p4144
F1.0
sS'CSU'
p4145
F1.0
sS'NL'
p4146
F0.0
sS'CSV'
p4147
F1.0
sS'FKWL'
p4148
F0.0
sS'CSS'
p4149
F0.0
sS'UCLQY'
p4150
F1.0
sS'NAPRF'
p4151
F1.0
sS'VOXX'
p4152
F0.0
sS'COENF'
p4153
F0.497
sS'EDCFF'
p4154
F0.0
sS'LMPRY'
p4155
F0.999
sS'KNCRF'
p4156
F0.755
sS'XOXO'
p4157
F0.0
sS'TPTJF'
p4158
F1.0
sS'ALGT'
p4159
F1.0
sS'CALVF'
p4160
F0.0
sS'ODP'
p4161
F0.001
sS'MXRHY'
p4162
F1.0
sS'ALGN'
p4163
F0.0
sS'WGO'
p4164
F0.0
sS'CMLP'
p4165
F1.0
sS'LMPRF'
p4166
F0.999
sS'TZOO'
p4167
F1.0
sS'ISVJY'
p4168
F0.033
sS'MAOTF'
p4169
F0.875
sS'ITXN'
p4170
F0.0
sS'ESCA'
p4171
F0.0
sS'ACXM'
p4172
F0.0
sS'ESCC'
p4173
F0.0
sS'JBT'
p4174
F0.001
sS'WYN'
p4175
F0.857
sS'NRF'
p4176
F1.0
sS'MUR'
p4177
F1.0
sS'SXGAF'
p4178
F1.0
sS'RRC'
p4179
F1.0
sS'IFSPF'
p4180
F0.0
sS'AES'
p4181
F1.0
sS'TMNSF'
p4182
F0.0
sS'CMGMY'
p4183
F0.0
sS'HIBB'
p4184
F1.0
sS'RGDX'
p4185
F1.0
sS'JBL'
p4186
F0.01
sS'EMR'
p4187
F0.033
sS'SECYF'
p4188
F0.949
sS'CMCI'
p4189
F0.0
sS'HTZZF'
p4190
F0.0
sS'CMCO'
p4191
F0.0
sS'STX'
p4192
F0.0
sS'VODG'
p4193
F1.0
sS'DGI'
p4194
F1.0
sS'CKSW'
p4195
F0.091
sS'NUS'
p4196
F1.0
sS'MASI'
p4197
F1.0
sS'CSBR'
p4198
F0.744
sS'CCGGY'
p4199
F0.803
sS'TECH'
p4200
F0.0
sS'DGX'
p4201
F0.665
sS'ASH'
p4202
F0.0
sS'YOHOF'
p4203
F1.0
sS'RSYS'
p4204
F0.0
sS'UNP'
p4205
F1.0
sS'TFM'
p4206
F1.0
sS'DUK'
p4207
F1.0
sS'HERO'
p4208
F0.0
sS'JLWT'
p4209
F0.013
sS'NHYKF'
p4210
F0.028
sS'VGR'
p4211
F1.0
sS'IBTGF'
p4212
F0.006
sS'PMMAF'
p4213
F0.039
sS'EHTH'
p4214
F1.0
sS'RGORF'
p4215
F0.103
sS'R'
p4216
F1.0
sS'CDTI'
p4217
F1.0
sS'PDRDY'
p4218
F1.0
sS'NQ'
p4219
F0.0
sS'SNIOF'
p4220
F0.045
sS'AVSFY'
p4221
F0.293
sS'SWKH'
p4222
F0.0
sS'AETI'
p4223
F0.649
sS'OMC'
p4224
F0.049
sS'TTAZF'
p4225
F0.962
sS'MNOIY'
p4226
F0.0
sS'EHMEF'
p4227
F1.0
sS'TCCMF'
p4228
F0.756
sS'OME'
p4229
F0.0
sS'ITI'
p4230
F0.0
sS'RMTI'
p4231
F0.0
sS'OMI'
p4232
F0.0
sS'ELDO'
p4233
F1.0
sS'ITC'
p4234
F1.0
sS'SCVUF'
p4235
F0.786
sS'KS'
p4236
F0.003
sS'KR'
p4237
F1.0
sS'SCSC'
p4238
F0.0
sS'KW'
p4239
F1.0
sS'SCRH'
p4240
F0.0
sS'GBR'
p4241
F0.983
sS'ITT'
p4242
F0.009
sS'CRME'
p4243
F1.0
sS'CBLNY'
p4244
F0.0
sS'CAZFF'
p4245
F1.0
sS'LDBKF'
p4246
F1.0
sS'CEQXF'
p4247
F1.0
sS'ALFVF'
p4248
F0.0
sS'SSRI'
p4249
F1.0
sS'AAN'
p4250
F1.0
sS'LODE'
p4251
F1.0
sS'RAKNF'
p4252
F0.0
sS'AAT'
p4253
F1.0
sS'AAV'
p4254
F1.0
sS'GBYLY'
p4255
F0.0
sS'AAP'
p4256
F1.0
sS'HSTM'
p4257
F0.0
sS'OPCO'
p4258
F0.0
sS'ALFVY'
p4259
F0.0
sS'PATK'
p4260
F0.0
sS'KPELY'
p4261
F1.0
sS'BASFY'
p4262
F0.541
sS'BIO'
p4263
F0.0
sS'JOUT'
p4264
F0.0
sS'AFRBY'
p4265
F1.0
sS'TW'
p4266
F0.999
sS'BLLAF'
p4267
F0.999
sS'NCI'
p4268
F0.0
sS'MECVF'
p4269
F0.0
sS'UNF'
p4270
F0.0
sS'MLPKF'
p4271
F0.0
sS'TTLO'
p4272
F0.0
sS'KLKBY'
p4273
F1.0
sS'WEICY'
p4274
F0.0
sS'INXSF'
p4275
F0.793
sS'KWR'
p4276
F0.0
sS'BEPTF'
p4277
F0.999
sS'AILQF'
p4278
F1.0
sS'BHRT'
p4279
F1.0
sS'BLLAY'
p4280
F0.999
sS'BSFT'
p4281
F0.0
sS'DTEGY'
p4282
F1.0
sS'BIP'
p4283
F1.0
sS'TFX'
p4284
F0.01
sS'JARLF'
p4285
F0.025
sS'WY'
p4286
F0.0
sS'HOLX'
p4287
F0.0
sS'OKS'
p4288
F1.0
sS'CYBX'
p4289
F0.0
sS'NUFMF'
p4290
F0.0
sS'SLP'
p4291
F0.0
sS'CRNT'
p4292
F0.998
sS'AGFDF'
p4293
F1.0
sS'MDAHF'
p4294
F1.0
sS'OTTR'
p4295
F1.0
sS'ZBB'
p4296
F1.0
sS'HOLI'
p4297
F0.0
sS'CYBE'
p4298
F0.0
sS'TTSLF'
p4299
F1.0
sS'USNA'
p4300
F1.0
sS'DVLY'
p4301
F0.0
sS'POOL'
p4302
F1.0
sS'MCO'
p4303
F0.13
sS'UBSFY'
p4304
F1.0
sS'RGCO'
p4305
F1.0
sS'MCK'
p4306
F0.0
sS'VICUF'
p4307
F0.005
sS'MCF'
p4308
F0.0
sS'MCD'
p4309
F0.999
sS'BAMXY'
p4310
F1.0
sS'ELX'
p4311
F0.0
sS'USPH'
p4312
F0.0
sS'BDSI'
p4313
F1.0
sS'EYUUF'
p4314
F1.0
sS'GFN'
p4315
F1.0
sS'PKOH'
p4316
F0.0
sS'GSAT'
p4317
F0.0
sS'MXPTF'
p4318
F0.0
sS'GFF'
p4319
F0.0
sS'UBSFF'
p4320
F1.0
sS'CUB'
p4321
F0.0
sS'WLK'
p4322
F0.0
sS'BGC'
p4323
F0.0
sS'ALSWF'
p4324
F0.005
sS'EXC'
p4325
F1.0
sS'BSTC'
p4326
F0.0
sS'BGG'
p4327
F0.0
sS'CPOUF'
p4328
F0.952
sS'ZIMCF'
p4329
F0.0
sS'EXL'
p4330
F1.0
sS'PPPLF'
p4331
F1.0
sS'EXK'
p4332
F0.0
sS'CRRC'
p4333
F0.0
sS'BGS'
p4334
F0.002
sS'CRHVF'
p4335
F1.0
sS'STPJF'
p4336
F0.0
sS'EXP'
p4337
F0.0
sS'IOSP'
p4338
F0.0
sS'ALAXL'
p4339
F1.0
sS'KRC'
p4340
F1.0
sS'BORZY'
p4341
F0.016
sS'CERAL'
p4342
F0.0
sS'ZTHO'
p4343
F0.0
sS'PWON'
p4344
F0.244
sS'GRGTF'
p4345
F1.0
sS'DMIPF'
p4346
F0.0
sS'DEPO'
p4347
F1.0
sS'TSLLF'
p4348
F0.09
sS'BRLAF'
p4349
F1.0
sS'SPLS'
p4350
F0.001
sS'HLMAF'
p4351
F0.0
sS'DMIPY'
p4352
F0.0
sS'CGIUF'
p4353
F0.0
sS'IOCJY'
p4354
F0.003
sS'MYRG'
p4355
F0.0
sS'FBHS'
p4356
F0.368
sS'GPL'
p4357
F0.0
sS'BYPLF'
p4358
F0.008
sS'MTTRY'
p4359
F1.0
sS'GPI'
p4360
F1.0
sS'GPK'
p4361
F0.0
sS'CUPUF'
p4362
F1.0
sS'SINGY'
p4363
F0.999
sS'THS'
p4364
F0.0
sS'THR'
p4365
F0.0
sS'GPC'
p4366
F0.002
sS'EKTAY'
p4367
F0.998
sS'HWKN'
p4368
F0.0
sS'TNEYF'
p4369
F1.0
sS'CSMQY'
p4370
F1.0
sS'NAII'
p4371
F0.0
sS'GMAN'
p4372
F1.0
sS'FSXMF'
p4373
F0.0
sS'ADMT'
p4374
F0.206
sS'KRA'
p4375
F0.023
sS'HDVY'
p4376
F1.0
sS'IESC'
p4377
F0.0
sS'GPS'
p4378
F1.0
sS'AABGF'
p4379
F0.001
sS'DEQSF'
p4380
F0.0
sS'SLTC'
p4381
F1.0
sS'BNPJY'
p4382
F1.0
sS'CVPBF'
p4383
F1.0
sS'BGAIF'
p4384
F0.0
sS'IPG'
p4385
F1.0
sS'SYNC'
p4386
F0.723
sS'STDAY'
p4387
F1.0
sS'EDAP'
p4388
F0.852
sS'BNPJF'
p4389
F1.0
sS'KIM'
p4390
F1.0
sS'UVPOF'
p4391
F0.0
sS'MKRS'
p4392
F0.028
sS'CRR'
p4393
F0.998
sS'CRS'
p4394
F0.99
sS'MMLP'
p4395
F0.009
sS'MODLF'
p4396
F0.551
sS'CRV'
p4397
F0.0
sS'CYJBF'
p4398
F0.032
sS'IPFPF'
p4399
F1.0
sS'CRY'
p4400
F0.0
sS'POZN'
p4401
F0.001
sS'DSGUY'
p4402
F0.85
sS'SYNA'
p4403
F0.0
sS'ROAOF'
p4404
F0.0
sS'CRC'
p4405
F0.0
sS'FDS'
p4406
F0.0
sS'RSTAF'
p4407
F0.0
sS'PIFYF'
p4408
F0.0
sS'CYJBY'
p4409
F0.031
sS'CRK'
p4410
F1.0
sS'CRH'
p4411
F0.0
sS'CRI'
p4412
F0.0
sS'CRL'
p4413
F0.0
sS'CRM'
p4414
F0.0
sS'SAUHY'
p4415
F0.0
sS'DBOEY'
p4416
F1.0
sS'PQ'
p4417
F1.0
sS'PW'
p4418
F1.0
sS'VEMLF'
p4419
F0.0
sS'AEGR'
p4420
F0.0
sS'ABMD'
p4421
F0.0
sS'ABMC'
p4422
F0.143
sS'COSLF'
p4423
F1.0
sS'KKOYF'
p4424
F0.0
sS'MILL'
p4425
F1.0
sS'BYDDY'
p4426
F1.0
sS'OZM'
p4427
F0.0
sS'FRNWF'
p4428
F0.0
sS'AEGN'
p4429
F0.0
sS'SGEN'
p4430
F1.0
sS'AXANF'
p4431
F1.0
sS'BKLRF'
p4432
F1.0
sS'MDPCF'
p4433
F1.0
sS'OROCF'
p4434
F0.005
sS'PM'
p4435
F1.0
sS'DVSVF'
p4436
F0.132
sS'SHNWF'
p4437
F0.0
sS'REPR'
p4438
F0.0
sS'MKSI'
p4439
F0.0
sS'RCDTF'
p4440
F0.127
sS'SPOYF'
p4441
F0.973
sS'RAD'
p4442
F0.838
sS'SIRO'
p4443
F0.0
sS'APTS'
p4444
F1.0
sS'ETINF'
p4445
F0.0
sS'IAIC'
p4446
F0.0
sS'KTCC'
p4447
F0.0
sS'QCOM'
p4448
F0.0
sS'CVYPF'
p4449
F0.0
sS'PMCUF'
p4450
F1.0
sS'IMPV'
p4451
F0.0
sS'SHNWY'
p4452
F0.0
sS'TCRRF'
p4453
F1.0
sS'GTOFF'
p4454
F0.0
sS'MSCI'
p4455
F0.004
sS'MSO'
p4456
F0.0
sS'RNO'
p4457
F0.136
sS'IPGP'
p4458
F0.0
sS'UCLQF'
p4459
F1.0
sS'GYRO'
p4460
F1.0
sS'CSRXF'
p4461
F0.698
sS'SPRS'
p4462
F0.0
sS'RNF'
p4463
F1.0
sS'SPW'
p4464
F0.607
sS'STRT'
p4465
F0.007
sS'STRI'
p4466
F0.0
sS'AIQUY'
p4467
F1.0
sS'STRN'
p4468
F0.0
sS'KGSDF'
p4469
F1.0
sS'ALTX'
p4470
F0.0
sS'STRA'
p4471
F0.0
sS'NTCT'
p4472
F0.0
sS'ALTR'
p4473
F0.0
sS'WKCMY'
p4474
F0.968
sS'CLKXF'
p4475
F1.0
sS'ABCD'
p4476
F1.0
sS'USG'
p4477
F0.005
sS'IP'
p4478
F0.008
sS'DVN'
p4479
F1.0
sS'GKNT'
p4480
F0.0
sS'WDFC'
p4481
F0.955
sS'DVD'
p4482
F1.0
sS'DWHHF'
p4483
F1.0
sS'ABCO'
p4484
F0.997
sS'DVA'
p4485
F0.198
sS'PEGA'
p4486
F0.0
sS'CMRO'
p4487
F0.0
sS'ACLTF'
p4488
F1.0
sS'WLWHY'
p4489
F1.0
sS'CMRE'
p4490
F1.0
sS'PNTR'
p4491
F0.951
sS'TGC'
p4492
F0.0
sS'MODVF'
p4493
F0.0
sS'PGCG'
p4494
F1.0
sS'ANDE'
p4495
F0.89
sS'SHPGF'
p4496
F0.0
sS'BTAFF'
p4497
F0.999
sS'BTURF'
p4498
F0.0
sS'OLN'
p4499
F0.0
sS'OLP'
p4500
F1.0
sS'RELV'
p4501
F1.0
sS'RYAAY'
p4502
F1.0
sS'XRAY'
p4503
F0.0
sS'ELGX'
p4504
F1.0
sS'JKHY'
p4505
F0.002
sS'PZCUY'
p4506
F0.994
sS'HALN'
p4507
F1.0
sS'HAYN'
p4508
F0.0
sS'USM'
p4509
F1.0
sS'IR'
p4510
F0.06
sS'ANDR'
p4511
F0.0
sS'IEX'
p4512
F0.0
sS'JNPKF'
p4513
F0.009
sS'OCLR'
p4514
F0.373
sS'EXAM'
p4515
F0.026
sS'WIPKF'
p4516
F0.0
sS'WTKWY'
p4517
F0.887
sS'IEP'
p4518
F0.155
sS'FSNUY'
p4519
F0.881
sS'EXAC'
p4520
F0.0
sS'FRED'
p4521
F0.992
sS'OCLG'
p4522
F1.0
sS'NVEC'
p4523
F0.0
sS'AMSYF'
p4524
F0.369
sS'TOIPF'
p4525
F0.0
sS'STGAF'
p4526
F1.0
sS'BLDR'
p4527
F0.002
sS'BLDP'
p4528
F1.0
sS'EONGY'
p4529
F0.0
sS'MCSHF'
p4530
F0.0
sS'SPNUF'
p4531
F0.983
sS'HCKT'
p4532
F0.0
sS'SMTC'
p4533
F0.0
sS'CHRW'
p4534
F0.0
sS'CDE'
p4535
F0.0
sS'TRIB'
p4536
F1.0
sS'PLT'
p4537
F0.0
sS'CHRS'
p4538
F0.0
sS'JMPLF'
p4539
F0.0
sS'MSN'
p4540
F0.0
sS'CYRAY'
p4541
F0.0
sS'IMPUF'
p4542
F0.0
sS'HUFAF'
p4543
F1.0
sS'IDEXY'
p4544
F0.997
sS'CDI'
p4545
F0.0
sS'CCRN'
p4546
F0.0
sS'PLX'
p4547
F1.0
sS'SBUX'
p4548
F1.0
sS'PSB'
p4549
F0.984
sS'IDEXF'
p4550
F0.997
sS'MORN'
p4551
F0.49
sS'IMPUY'
p4552
F0.0
sS'CDR'
p4553
F1.0
sS'JMPLY'
p4554
F0.0
sS'VSUL'
p4555
F0.997
sS'PLL'
p4556
F0.0
sS'ASNB'
p4557
F0.003
sS'PUPOF'
p4558
F1.0
sS'AOMOY'
p4559
F0.003
sS'MSGRL'
p4560
F0.003
sS'MTSL'
p4561
F1.0
sS'OSUR'
p4562
F0.0
sS'QGEN'
p4563
F0.0
sS'MNTA'
p4564
F1.0
sS'BXP'
p4565
F1.0
sS'CWEGF'
p4566
F1.0
sS'OSGFF'
p4567
F0.318
sS'MNTX'
p4568
F0.023
sS'AMZKF'
p4569
F0.0
sS'ZHNE'
p4570
F0.001
sS'CWXZF'
p4571
F0.0
sS'AACS'
p4572
F0.908
sS'TPC'
p4573
F0.15
sS'BXC'
p4574
F0.0
sS'NULM'
p4575
F1.0
sS'PNR'
p4576
F0.0
sS'PPC'
p4577
F0.0
sS'HLFDY'
p4578
F1.0
sS'GCAAF'
p4579
F0.041
sS'PPG'
p4580
F0.906
sS'RPKIF'
p4581
F0.0
sS'SSEZF'
p4582
F0.003
sS'GAS'
p4583
F1.0
sS'KFRC'
p4584
F0.004
sS'MONDY'
p4585
F0.696
sS'PPL'
p4586
F1.0
sS'MONDF'
p4587
F0.682
sS'PPP'
p4588
F0.0
sS'DCI'
p4589
F0.0
sS'MOPLF'
p4590
F0.0
sS'NOK'
p4591
F0.0
sS'HLFDF'
p4592
F1.0
sS'MTX'
p4593
F0.0
sS'ENAFF'
p4594
F1.0
sS'ALIAF'
p4595
F0.0
sS'GRPN'
p4596
F0.796
sS'CDUAF'
p4597
F1.0
sS'JCS'
p4598
F0.0
sS'SUEZF'
p4599
F0.015
sS'NETE'
p4600
F0.0
sS'GFNL'
p4601
F0.0
sS'CGFAF'
p4602
F0.99
sS'MTW'
p4603
F1.0
sS'SAGKY'
p4604
F1.0
sS'NHTC'
p4605
F1.0
sS'MTH'
p4606
F1.0
sS'CGFAY'
p4607
F0.99
sS'MTN'
p4608
F0.001
sS'TLPFY'
p4609
F1.0
sS'JLL'
p4610
F1.0
sS'ESLT'
p4611
F0.164
sS'BBRG'
p4612
F1.0
sS'KIROY'
p4613
F1.0
sS'JCI'
p4614
F0.004
sS'MTD'
p4615
F0.335
sS'BRID'
p4616
F0.047
sS'CBHMF'
p4617
F0.0
sS'ARR'
p4618
F0.0
sS'ARW'
p4619
F0.0
sS'BNTGF'
p4620
F0.001
sS'CSCO'
p4621
F0.0
sS'SZGPY'
p4622
F0.0
sS'RUBNF'
p4623
F0.0
sS'TKHVY'
p4624
F0.676
sS'PTORF'
p4625
F1.0
sS'ARC'
p4626
F0.0
sS'SWFT'
p4627
F0.862
sS'BNTGY'
p4628
F0.001
sS'SYNT'
p4629
F0.0
sS'ARG'
p4630
F0.997
sS'TNGO'
p4631
F0.0
sS'RTBRF'
p4632
F1.0
sS'MOD'
p4633
F0.0
sS'ARL'
p4634
F1.0
sS'CBHMY'
p4635
F0.0
sS'CPSL'
p4636
F0.0
sS'AFRAF'
p4637
F1.0
sS'DPMAY'
p4638
F0.0
sS'BG'
p4639
F0.006
sS'CPSH'
p4640
F0.0
sS'BA'
p4641
F0.002
sS'NCIT'
p4642
F0.0
sS'BC'
p4643
F0.009
sS'RPBIF'
p4644
F0.997
sS'GESGF'
p4645
F0.0
sS'ATSAF'
p4646
F0.0
sS'BH'
p4647
F0.765
sS'MRETF'
p4648
F0.001
sS'TIS'
p4649
F1.0
sS'BT'
p4650
F0.498
sS'BCO'
p4651
F0.001
sS'BP'
p4652
F0.0
sS'BR'
p4653
F0.0
sS'ATLGF'
p4654
F1.0
sS'CPST'
p4655
F0.825
sS'GSK'
p4656
F0.523
sS'BX'
p4657
F0.997
sS'HRG'
p4658
F0.006
sS'WILLF'
p4659
F1.0
sS'RLOG'
p4660
F1.0
sS'NNN'
p4661
F1.0
sS'AVID'
p4662
F1.0
sS'RLOC'
p4663
F1.0
sS'TRHXY'
p4664
F0.014
sS'TRLPF'
p4665
F0.0
sS'FOVSY'
p4666
F0.961
sS'ATHN'
p4667
F0.682
sS'NNA'
p4668
F1.0
sS'LTORY'
p4669
F1.0
sS'KSKGF'
p4670
F0.0
sS'HSII'
p4671
F0.471
sS'EMMS'
p4672
F0.0
sS'HNH'
p4673
F0.0
sS'APEI'
p4674
F1.0
sS'HRB'
p4675
F0.001
sS'OERLY'
p4676
F0.349
sS'IRS'
p4677
F0.0
sS'HSIC'
p4678
F0.0
sS'TOIPY'
p4679
F0.0
sS'HLMNY'
p4680
F0.049
sS'TNTEY'
p4681
F0.276
sS'PETS'
p4682
F0.21
sS'SENEB'
p4683
F0.0
sS'ORPGF'
p4684
F0.0
sS'NWTUF'
p4685
F0.771
sS'AUEOF'
p4686
F0.999
sS'RNMBF'
p4687
F1.0
sS'OCCAF'
p4688
F0.0
sS'AUXO'
p4689
F0.0
sS'HLDXF'
p4690
F0.0
sS'ISCA'
p4691
F1.0
sS'KMI'
p4692
F1.0
sS'PEYUF'
p4693
F1.0
sS'EVNVY'
p4694
F0.0
sS'KFGRF'
p4695
F0.002
sS'ISCO'
p4696
F1.0
sS'ENTMF'
p4697
F0.0
sS'ZRDZF'
p4698
F0.0
sS'MPAD'
p4699
F0.0
sS'TLSYY'
p4700
F0.459
sS'VRSN'
p4701
F0.92
sS'VRSK'
p4702
F1.0
sS'BVX'
p4703
F0.0
sS'SCOK'
p4704
F1.0
sS'GIFLF'
p4705
F0.0
sS'TUWOY'
p4706
F0.0
sS'PRAA'
p4707
F0.0
sS'TREX'
p4708
F0.0
sS'RNRTY'
p4709
F0.006
sS'KMT'
p4710
F0.0
sS'PFHO'
p4711
F0.0
sS'ROSE'
p4712
F1.0
sS'HLMNF'
p4713
F0.074
sS'KAI'
p4714
F0.0
sS'CRCL'
p4715
F1.0
sS'EIHZF'
p4716
F0.99
sS'BSNRF'
p4717
F0.0
sS'DASTY'
p4718
F0.0
sS'GLUX'
p4719
F0.0
sS'JCOM'
p4720
F0.0
sS'UNTD'
p4721
F0.008
sS'EPCBF'
p4722
F0.0
sS'TLKTF'
p4723
F1.0
sS'EEP'
p4724
F1.0
sS'GFLDF'
p4725
F0.0
sS'SLCA'
p4726
F0.0
sS'EEI'
p4727
F0.0
sS'APYRF'
p4728
F1.0
sS'GLT'
p4729
F0.0
sS'COLFF'
p4730
F0.0
sS'KRNLF'
p4731
F0.414
sS'APNHF'
p4732
F1.0
sS'DASTF'
p4733
F0.0
sS'BSNRY'
p4734
F0.0
sS'FOREY'
p4735
F0.982
sS'AGMHF'
p4736
F1.0
sS'ROK'
p4737
F0.0
sS'PRTS'
p4738
F1.0
sS'ARGKF'
p4739
F0.994
sS'RVBD'
p4740
F0.0
sS'ICFI'
p4741
F0.002
sS'WEC'
p4742
F1.0
sS'CGMVF'
p4743
F1.0
sS'MARZF'
p4744
F1.0
sS'IVFH'
p4745
F0.001
sS'MMTMF'
p4746
F1.0
sS'TKPPY'
p4747
F0.999
sS'OSK'
p4748
F0.025
sS'PFSCF'
p4749
F1.0
sS'KINS'
p4750
F1.0
sS'AUSTF'
p4751
F1.0
sS'LLL'
p4752
F0.0
sS'EZCH'
p4753
F0.0
sS'QNTQY'
p4754
F0.883
sS'KMX'
p4755
F1.0
sS'POFCY'
p4756
F0.008
sS'WEWWF'
p4757
F0.0
sS'BDE'
p4758
F0.608
sS'BUKS'
p4759
F0.0
sS'TPCS'
p4760
F0.0
sS'RHHVF'
p4761
F0.001
sS'CNIT'
p4762
F0.855
sS'PLORF'
p4763
F0.0
sS'BDC'
p4764
F0.0
sS'BDL'
p4765
F1.0
sS'RIDYY'
p4766
F0.0
sS'BDN'
p4767
F1.0
sS'SEOAY'
p4768
F0.792
sS'LABL'
p4769
F0.0
sS'TPCA'
p4770
F0.999
sS'CPAH'
p4771
F0.294
sS'MCRZF'
p4772
F0.0
sS'AGPIF'
p4773
F1.0
sS'BLKPF'
p4774
F1.0
sS'BFEHF'
p4775
F0.0
sS'CNIG'
p4776
F1.0
sS'NSRGY'
p4777
F0.013
sS'CRUS'
p4778
F0.0
sS'IRPTF'
p4779
F0.923
sS'BDX'
p4780
F0.0
sS'ECPG'
p4781
F1.0
sS'VOD'
p4782
F0.0
sS'KNYJF'
p4783
F0.001
sS'CBAI'
p4784
F0.0
sS'RJIUF'
p4785
F1.0
sS'AVMXF'
p4786
F1.0
sS'RUSMF'
p4787
F0.0
sS'TSYS'
p4788
F1.0
sS'LRN'
p4789
F0.0
sS'DIALF'
p4790
F0.873
sS'VIVEF'
p4791
F0.0
sS'REXMY'
p4792
F0.999
sS'GMCR'
p4793
F0.004
sS'DEWY'
p4794
F0.017
sS'UG'
p4795
F0.0
sS'UA'
p4796
F0.005
sS'SFEF'
p4797
F1.0
sS'KNYJY'
p4798
F0.001
sS'POFCF'
p4799
F0.009
sS'FOSI'
p4800
F0.588
sS'ELTP'
p4801
F1.0
sS'FOSL'
p4802
F0.001
sS'FRFS'
p4803
F1.0
sS'TWODY'
p4804
F0.367
sS'IDT'
p4805
F0.059
sS'ALAN'
p4806
F1.0
sS'SBGSY'
p4807
F0.306
sS'IDN'
p4808
F0.0
sS'STON'
p4809
F0.997
sS'IRDM'
p4810
F1.0
sS'SSS'
p4811
F1.0
sS'PLAB'
p4812
F0.0
sS'ELTK'
p4813
F0.713
sS'TUPTF'
p4814
F0.999
sS'JCYGY'
p4815
F0.67
sS'BADFF'
p4816
F1.0
sS'BGFV'
p4817
F1.0
sS'MCCRF'
p4818
F0.001
sS'IDA'
p4819
F1.0
sS'CGI'
p4820
F1.0
sS'JDGPF'
p4821
F0.014
sS'STDAF'
p4822
F1.0
sS'BLKIB'
p4823
F1.0
sS'BLKIA'
p4824
F1.0
sS'QEP'
p4825
F1.0
sS'CGA'
p4826
F0.0
sS'SCIO'
p4827
F0.0
sS'WFM'
p4828
F1.0
sS'IRDYF'
p4829
F0.952
sS'PG'
p4830
F0.985
sS'FAST'
p4831
F0.0
sS'PBSV'
p4832
F0.0
sS'PMD'
p4833
F1.0
sS'BIOS'
p4834
F0.019
sS'CJES'
p4835
F1.0
sS'DRAGY'
p4836
F1.0
sS'PMC'
p4837
F0.0
sS'CAKE'
p4838
F1.0
sS'KKWFF'
p4839
F0.004
sS'OXBDF'
p4840
F1.0
sS'OCC'
p4841
F0.0
sS'GKNCF'
p4842
F0.92
sS'DEIWY'
p4843
F0.999
sS'HICKA'
p4844
F0.0
sS'MINI'
p4845
F1.0
sS'MKGAY'
p4846
F0.0
sS'ARMH'
p4847
F0.0
sS'KINNF'
p4848
F1.0
sS'ZMTP'
p4849
F0.0
sS'FRDIF'
p4850
F0.0
sS'SYHEF'
p4851
F0.0
sS'MIND'
p4852
F1.0
sS'CUZ'
p4853
F1.0
sS'CGIFF'
p4854
F0.0
sS'BLGA'
p4855
F1.0
sS'CPPMF'
p4856
F0.999
sS'CUO'
p4857
F0.0
sS'CCEL'
p4858
F1.0
sS'MKGAF'
p4859
F0.0
sS'CUK'
p4860
F1.0
sS'CUI'
p4861
F0.0
sS'URG'
p4862
F0.0
sS'UFI'
p4863
F0.0
sS'PRBZF'
p4864
F0.271
sS'CXDC'
p4865
F1.0
sS'MTRAF'
p4866
F0.998
sS'GIGNF'
p4867
F0.0
sS'SYIEY'
p4868
F0.0
sS'ARZTY'
p4869
F0.357
sS'MCRZY'
p4870
F0.0
sS'BDVSF'
p4871
F0.136
sS'WKCMF'
p4872
F0.976
sS'FCREY'
p4873
F0.002
sS'WLMIY'
p4874
F0.029
sS'LFGEF'
p4875
F1.0
sS'COLM'
p4876
F0.0
sS'TAYD'
p4877
F0.0
sS'BDVSY'
p4878
F0.219
sS'STE'
p4879
F0.0
sS'ARUN'
p4880
F0.0
sS'AGFMF'
p4881
F0.999
sS'AMKBY'
p4882
F1.0
sS'RIOCF'
p4883
F1.0
sS'GCGMF'
p4884
F0.077
sS'FNEVF'
p4885
F0.024
sS'USEG'
p4886
F1.0
sS'ESMC'
p4887
F0.945
sS'FRUTF'
p4888
F0.005
sS'CKSNY'
p4889
F0.004
sS'BBSI'
p4890
F0.0
sS'CIR'
p4891
F0.0
sS'MSM'
p4892
F0.0
sS'TCCO'
p4893
F0.0
sS'MTSN'
p4894
F0.919
sS'MSI'
p4895
F0.148
sS'PRFT'
p4896
F0.0
sS'MSG'
p4897
F1.0
sS'MTSC'
p4898
F0.0
sS'NEWP'
p4899
F0.0
sS'CIX'
p4900
F0.0
sS'TAWUF'
p4901
F0.554
sS'MSB'
p4902
F0.006
sS'MSA'
p4903
F0.041
sS'CUYTY'
p4904
F0.098
sS'HMRLF'
p4905
F0.538
sS'DAC'
p4906
F1.0
sS'DAL'
p4907
F0.993
sS'DAN'
p4908
F0.0
sS'COYN'
p4909
F1.0
sS'KSKGY'
p4910
F0.0
sS'YGRAF'
p4911
F1.0
sS'MCEP'
p4912
F1.0
sS'TRPRY'
p4913
F1.0
sS'ORCL'
p4914
F0.0
sS'FINMF'
p4915
F0.859
sS'WFT'
p4916
F0.695
sS'DAR'
p4917
F0.013
sS'YORW'
p4918
F1.0
sS'PRMRF'
p4919
F1.0
sS'NWVCF'
p4920
F1.0
sS'UELKY'
p4921
F0.003
sS'CCEGF'
p4922
F1.0
sS'PRSC'
p4923
F0.002
sS'SRLRY'
p4924
F1.0
sS'CCPEL'
p4925
F1.0
sS'VIVO'
p4926
F0.0
sS'CLTFF'
p4927
F1.0
sS'STGYF'
p4928
F1.0
sS'CPXWF'
p4929
F0.986
sS'COKE'
p4930
F1.0
sS'VCNYF'
p4931
F0.927
sS'UGI'
p4932
F0.977
sS'GLNIF'
p4933
F0.0
sS'DWA'
p4934
F0.0
sS'CSRE'
p4935
F0.706
sS'ENAKF'
p4936
F0.0
sS'TWER'
p4937
F0.91
sS'SNCR'
p4938
F0.037
sS'MOSY'
p4939
F1.0
sS'IGPFF'
p4940
F0.0
sS'ANCI'
p4941
F1.0
sS'PNRG'
p4942
F1.0
sS'WEEEF'
p4943
F0.0
sS'EQIX'
p4944
F1.0
sS'QDEL'
p4945
F0.0
sS'SKFOF'
p4946
F0.805
sS'GVDNY'
p4947
F0.0
sS'BCHEY'
p4948
F0.999
sS'DSGX'
p4949
F0.0
sS'THKUF'
p4950
F0.996
sS'ROTGY'
p4951
F0.0
sS'FNEVY'
p4952
F0.025
sS'NGG'
p4953
F1.0
sS'NPIFF'
p4954
F1.0
sS'TASEF'
p4955
F1.0
sS'DTEYF'
p4956
F1.0
sS'CIFAF'
p4957
F0.006
sS'TBVPF'
p4958
F0.968
sS'RSCF'
p4959
F0.0
sS'IRIX'
p4960
F0.0
s.